(dp0
S'level-delete-original-0_5'
p1
(dp2
I128
(dp3
I60
(dp4
I64
(dp5
S'nodes'
p6
(dp7
V1
p8
I9
sV3
p9
I1
sV2
p10
I3
sV5
p11
I0
sV4
p12
I0
sV7
p13
I0
sV6
p14
I0
ssS'txs'
p15
I463314165
ssI32
(dp16
g6
(dp17
g8
I9
sg9
I1
sg10
I3
sg11
I0
sg12
I0
sg13
I0
sg14
I0
ssg15
I397993625
ssI2
(dp18
g6
(dp19
g8
I9
sg9
I2
sg10
I4
sg11
I0
sg12
I0
sg13
I0
sg14
I0
ssg15
I54366488
ssI4
(dp20
g6
(dp21
g8
I9
sg9
I1
sg10
I4
sg11
I0
sg12
I0
sg13
I0
sg14
I0
ssg15
I84534708
ssI8
(dp22
g6
(dp23
g8
I9
sg9
I1
sg10
I4
sg11
I0
sg12
I0
sg13
I0
sg14
I0
ssg15
I122924420
ssI16
(dp24
g6
(dp25
g8
I9
sg9
I1
sg10
I4
sg11
I0
sg12
I0
sg13
I0
sg14
I0
ssg15
I250455926
sssI30
(dp26
I64
(dp27
g6
(dp28
g8
I9
sg9
I1
sg10
I4
sg11
I0
sg12
I0
sg13
I0
sg14
I0
ssg15
I574990505
ssI32
(dp29
g6
(dp30
g8
I9
sg9
I1
sg10
I4
sg11
I0
sg12
I0
sg13
I0
sg14
I0
ssg15
I498328268
ssI2
(dp31
g6
(dp32
g8
I9
sg9
I1
sg10
I4
sg11
I0
sg12
I0
sg13
I0
sg14
I0
ssg15
I64064834
ssI4
(dp33
g6
(dp34
g8
I9
sg9
I1
sg10
I4
sg11
I0
sg12
I0
sg13
I0
sg14
I0
ssg15
I104711555
ssI8
(dp35
g6
(dp36
g8
I9
sg9
I1
sg10
I4
sg11
I0
sg12
I0
sg13
I0
sg14
I0
ssg15
I151227289
ssI16
(dp37
g6
(dp38
g8
I9
sg9
I2
sg10
I4
sg11
I0
sg12
I0
sg13
I0
sg14
I0
ssg15
I300469764
ssssI262144
(dp39
I60
(dp40
I64
(dp41
g6
(dp42
V11
p43
I10
sV10
p44
I21
sV13
p45
I2
sV12
p46
I5
sV15
p47
I0
sV14
p48
I1
sV17
p49
I0
sV16
p50
I0
sV18
p51
I0
sg8
I18838
sg9
I3367
sg10
I8014
sg11
I685
sg12
I1446
sg13
I170
sg14
I341
sV9
p52
I42
sV8
p53
I85
ssg15
I383303394
ssI32
(dp54
g6
(dp55
V11
p56
I10
sV10
p57
I21
sV13
p58
I2
sV12
p59
I5
sV15
p60
I0
sV14
p61
I1
sV17
p62
I0
sV16
p63
I0
sV18
p64
I0
sg8
I18831
sg9
I3363
sg10
I8000
sg11
I684
sg12
I1442
sg13
I170
sg14
I341
sg52
I42
sg53
I85
ssg15
I242456299
ssI2
(dp65
g6
(dp66
V11
p67
I10
sV10
p68
I21
sV13
p69
I2
sV12
p70
I5
sV15
p71
I0
sV14
p72
I1
sV17
p73
I0
sV16
p74
I0
sV18
p75
I0
sg8
I18747
sg9
I3340
sg10
I7964
sg11
I684
sg12
I1437
sg13
I170
sg14
I341
sg52
I42
sg53
I85
ssg15
I22084679
ssI4
(dp76
g6
(dp77
V11
p78
I10
sV10
p79
I21
sV13
p80
I2
sV12
p81
I5
sV15
p82
I0
sV14
p83
I1
sV17
p84
I0
sV16
p85
I0
sV18
p86
I0
sg8
I18786
sg9
I3348
sg10
I7979
sg11
I684
sg12
I1440
sg13
I170
sg14
I341
sg52
I42
sg53
I85
ssg15
I41214791
ssI8
(dp87
g6
(dp88
V11
p89
I10
sV10
p90
I21
sV13
p91
I2
sV12
p92
I5
sV15
p93
I0
sV14
p94
I1
sV17
p95
I0
sV16
p96
I0
sV18
p97
I0
sg8
I18792
sg9
I3355
sg10
I7986
sg11
I685
sg12
I1440
sg13
I170
sg14
I341
sg52
I42
sg53
I85
ssg15
I73839764
ssI16
(dp98
g6
(dp99
V11
p100
I10
sV10
p101
I21
sV13
p102
I2
sV12
p103
I5
sV15
p104
I0
sV14
p105
I1
sV17
p106
I0
sV16
p107
I0
sV18
p108
I0
sg8
I18818
sg9
I3367
sg10
I8008
sg11
I684
sg12
I1445
sg13
I170
sg14
I341
sg52
I42
sg53
I85
ssg15
I133800635
sssI30
(dp109
I64
(dp110
g6
(dp111
V11
p112
I10
sV10
p113
I21
sV13
p114
I2
sV12
p115
I5
sV15
p116
I0
sV14
p117
I1
sV17
p118
I0
sV16
p119
I0
sV18
p120
I0
sg8
I18813
sg9
I3366
sg10
I8007
sg11
I684
sg12
I1443
sg13
I170
sg14
I341
sg52
I42
sg53
I85
ssg15
I378993397
ssI32
(dp121
g6
(dp122
V11
p123
I10
sV10
p124
I21
sV13
p125
I2
sV12
p126
I5
sV15
p127
I0
sV14
p128
I1
sV17
p129
I0
sV16
p130
I0
sV18
p131
I0
sg8
I18835
sg9
I3370
sg10
I8019
sg11
I684
sg12
I1444
sg13
I170
sg14
I341
sg52
I42
sg53
I85
ssg15
I249190700
ssI2
(dp132
g6
(dp133
V11
p134
I10
sV10
p135
I21
sV13
p136
I2
sV12
p137
I5
sV15
p138
I0
sV14
p139
I1
sV17
p140
I0
sV16
p141
I0
sV18
p142
I0
sg8
I18712
sg9
I3321
sg10
I7932
sg11
I684
sg12
I1432
sg13
I170
sg14
I341
sg52
I42
sg53
I85
ssg15
I23579074
ssI4
(dp143
g6
(dp144
V11
p145
I10
sV10
p146
I21
sV13
p147
I2
sV12
p148
I5
sV15
p149
I0
sV14
p150
I1
sV17
p151
I0
sV16
p152
I0
sV18
p153
I0
sg8
I18765
sg9
I3345
sg10
I7975
sg11
I684
sg12
I1440
sg13
I170
sg14
I341
sg52
I42
sg53
I85
ssg15
I43219775
ssI8
(dp154
g6
(dp155
V11
p156
I10
sV10
p157
I21
sV13
p158
I2
sV12
p159
I5
sV15
p160
I0
sV14
p161
I1
sV17
p162
I0
sV16
p163
I0
sV18
p164
I0
sg8
I18765
sg9
I3341
sg10
I7963
sg11
I684
sg12
I1436
sg13
I170
sg14
I341
sg52
I42
sg53
I85
ssg15
I77493182
ssI16
(dp165
g6
(dp166
V11
p167
I10
sV10
p168
I21
sV13
p169
I2
sV12
p170
I5
sV15
p171
I0
sV14
p172
I1
sV17
p173
I0
sV16
p174
I0
sV18
p175
I0
sg8
I18811
sg9
I3364
sg10
I8003
sg11
I684
sg12
I1442
sg13
I170
sg14
I341
sg52
I42
sg53
I85
ssg15
I139529507
sssssS'level-delete-by-ratio-3_4'
p176
(dp177
I128
(dp178
I60
(dp179
I64
(dp180
g6
(dp181
g8
I9
sg9
I1
sg10
I4
sg11
I0
sg12
I0
sg13
I0
sg14
I0
ssg15
I467011381
ssI32
(dp182
g6
(dp183
g8
I9
sg9
I1
sg10
I4
sg11
I0
sg12
I0
sg13
I0
sg14
I0
ssg15
I408847973
ssI2
(dp184
g6
(dp185
g8
I9
sg9
I1
sg10
I3
sg11
I0
sg12
I0
sg13
I0
sg14
I0
ssg15
I90616029
ssI4
(dp186
g6
(dp187
g8
I9
sg9
I1
sg10
I3
sg11
I0
sg12
I0
sg13
I0
sg14
I0
ssg15
I139782012
ssI8
(dp188
g6
(dp189
g8
I9
sg9
I1
sg10
I3
sg11
I0
sg12
I0
sg13
I0
sg14
I0
ssg15
I188492997
ssI16
(dp190
g6
(dp191
g8
I9
sg9
I1
sg10
I3
sg11
I0
sg12
I0
sg13
I0
sg14
I0
ssg15
I308889321
sssI30
(dp192
I64
(dp193
g6
(dp194
g8
I9
sg9
I1
sg10
I4
sg11
I0
sg12
I0
sg13
I0
sg14
I0
ssg15
I576702248
ssI32
(dp195
g6
(dp196
g8
I9
sg9
I1
sg10
I4
sg11
I0
sg12
I0
sg13
I0
sg14
I0
ssg15
I502253839
ssI2
(dp197
g6
(dp198
g8
I9
sg9
I1
sg10
I4
sg11
I0
sg12
I0
sg13
I0
sg14
I0
ssg15
I107579149
ssI4
(dp199
g6
(dp200
g8
I9
sg9
I1
sg10
I3
sg11
I0
sg12
I0
sg13
I0
sg14
I0
ssg15
I173402444
ssI8
(dp201
g6
(dp202
g8
I9
sg9
I1
sg10
I3
sg11
I0
sg12
I0
sg13
I0
sg14
I0
ssg15
I230127161
ssI16
(dp203
g6
(dp204
g8
I9
sg9
I1
sg10
I3
sg11
I0
sg12
I0
sg13
I0
sg14
I0
ssg15
I369929745
ssssI262144
(dp205
I60
(dp206
I64
(dp207
g6
(dp208
V11
p209
I10
sV10
p210
I21
sV13
p211
I2
sV12
p212
I5
sV15
p213
I0
sV14
p214
I1
sV17
p215
I0
sV16
p216
I0
sV18
p217
I0
sg8
I18832
sg9
I3377
sg10
I8024
sg11
I685
sg12
I1446
sg13
I170
sg14
I341
sg52
I42
sg53
I85
ssg15
I379341575
ssI32
(dp218
g6
(dp219
V11
p220
I10
sV10
p221
I21
sV13
p222
I2
sV12
p223
I5
sV15
p224
I0
sV14
p225
I1
sV17
p226
I0
sV16
p227
I0
sV18
p228
I0
sg8
I18836
sg9
I3368
sg10
I8015
sg11
I684
sg12
I1442
sg13
I170
sg14
I341
sg52
I42
sg53
I85
ssg15
I238304251
ssI2
(dp229
g6
(dp230
V11
p231
I10
sV10
p232
I21
sV13
p233
I2
sV12
p234
I5
sV15
p235
I0
sV14
p236
I1
sV17
p237
I0
sV16
p238
I0
sV18
p239
I0
sg8
I18758
sg9
I3334
sg10
I7951
sg11
I685
sg12
I1436
sg13
I170
sg14
I341
sg52
I42
sg53
I85
ssg15
I20734915
ssI4
(dp240
g6
(dp241
V11
p242
I10
sV10
p243
I21
sV13
p244
I2
sV12
p245
I5
sV15
p246
I0
sV14
p247
I1
sV17
p248
I0
sV16
p249
I0
sV18
p250
I0
sg8
I18784
sg9
I3344
sg10
I7970
sg11
I684
sg12
I1438
sg13
I170
sg14
I341
sg52
I42
sg53
I85
ssg15
I41384844
ssI8
(dp251
g6
(dp252
V11
p253
I10
sV10
p254
I21
sV13
p255
I2
sV12
p256
I5
sV15
p257
I0
sV14
p258
I1
sV17
p259
I0
sV16
p260
I0
sV18
p261
I0
sg8
I18788
sg9
I3355
sg10
I7986
sg11
I684
sg12
I1440
sg13
I170
sg14
I341
sg52
I42
sg53
I85
ssg15
I73620111
ssI16
(dp262
g6
(dp263
V11
p264
I10
sV10
p265
I21
sV13
p266
I2
sV12
p267
I5
sV15
p268
I0
sV14
p269
I1
sV17
p270
I0
sV16
p271
I0
sV18
p272
I0
sg8
I18817
sg9
I3364
sg10
I8007
sg11
I684
sg12
I1444
sg13
I170
sg14
I341
sg52
I42
sg53
I85
ssg15
I133256115
sssI30
(dp273
I64
(dp274
g6
(dp275
V11
p276
I10
sV10
p277
I21
sV13
p278
I2
sV12
p279
I5
sV15
p280
I0
sV14
p281
I1
sV17
p282
I0
sV16
p283
I0
sV18
p284
I0
sg8
I18846
sg9
I3371
sg10
I8024
sg11
I684
sg12
I1446
sg13
I170
sg14
I341
sg52
I42
sg53
I85
ssg15
I371562284
ssI32
(dp285
g6
(dp286
V11
p287
I10
sV10
p288
I21
sV13
p289
I2
sV12
p290
I5
sV15
p291
I0
sV14
p292
I1
sV17
p293
I0
sV16
p294
I0
sV18
p295
I0
sg8
I18804
sg9
I3365
sg10
I8009
sg11
I685
sg12
I1446
sg13
I170
sg14
I341
sg52
I42
sg53
I85
ssg15
I249578780
ssI2
(dp296
g6
(dp297
V11
p298
I10
sV10
p299
I21
sV13
p300
I2
sV12
p301
I5
sV15
p302
I0
sV14
p303
I1
sV17
p304
I0
sV16
p305
I0
sV18
p306
I0
sg8
I18713
sg9
I3322
sg10
I7929
sg11
I685
sg12
I1434
sg13
I170
sg14
I341
sg52
I42
sg53
I85
ssg15
I22647047
ssI4
(dp307
g6
(dp308
V11
p309
I10
sV10
p310
I21
sV13
p311
I2
sV12
p312
I5
sV15
p313
I0
sV14
p314
I1
sV17
p315
I0
sV16
p316
I0
sV18
p317
I0
sg8
I18758
sg9
I3336
sg10
I7962
sg11
I685
sg12
I1435
sg13
I170
sg14
I341
sg52
I42
sg53
I85
ssg15
I43054418
ssI8
(dp318
g6
(dp319
V11
p320
I10
sV10
p321
I21
sV13
p322
I2
sV12
p323
I5
sV15
p324
I0
sV14
p325
I1
sV17
p326
I0
sV16
p327
I0
sV18
p328
I0
sg8
I18789
sg9
I3353
sg10
I7980
sg11
I684
sg12
I1439
sg13
I170
sg14
I341
sg52
I42
sg53
I85
ssg15
I76273908
ssI16
(dp329
g6
(dp330
V11
p331
I10
sV10
p332
I21
sV13
p333
I2
sV12
p334
I5
sV15
p335
I0
sV14
p336
I1
sV17
p337
I0
sV16
p338
I0
sV18
p339
I0
sg8
I18821
sg9
I3365
sg10
I8009
sg11
I684
sg12
I1442
sg13
I170
sg14
I341
sg52
I42
sg53
I85
ssg15
I140551636
sssssS'threads-help-remove-log-number-threads'
p340
(dp341
I128
(dp342
I60
(dp343
I64
(dp344
g6
(dp345
g8
I9
sg9
I1
sg10
I4
sg11
I0
sg12
I0
sg13
I0
sg14
I0
ssg15
I466813977
ssI32
(dp346
g6
(dp347
g8
I9
sg9
I1
sg10
I4
sg11
I0
sg12
I0
sg13
I0
sg14
I0
ssg15
I406534484
ssI2
(dp348
g6
(dp349
g8
I9
sg9
I1
sg10
I3
sg11
I0
sg12
I0
sg13
I0
sg14
I0
ssg15
I81700808
ssI4
(dp350
g6
(dp351
g8
I9
sg9
I1
sg10
I4
sg11
I0
sg12
I0
sg13
I0
sg14
I0
ssg15
I130201916
ssI8
(dp352
g6
(dp353
g8
I9
sg9
I1
sg10
I3
sg11
I0
sg12
I0
sg13
I0
sg14
I0
ssg15
I190977867
ssI16
(dp354
g6
(dp355
g8
I9
sg9
I1
sg10
I3
sg11
I0
sg12
I0
sg13
I0
sg14
I0
ssg15
I303056026
sssI30
(dp356
I64
(dp357
g6
(dp358
g8
I9
sg9
I1
sg10
I4
sg11
I0
sg12
I0
sg13
I0
sg14
I0
ssg15
I562991575
ssI32
(dp359
g6
(dp360
g8
I9
sg9
I1
sg10
I4
sg11
I0
sg12
I0
sg13
I0
sg14
I0
ssg15
I517407702
ssI2
(dp361
g6
(dp362
g8
I9
sg9
I1
sg10
I4
sg11
I0
sg12
I0
sg13
I0
sg14
I0
ssg15
I105066257
ssI4
(dp363
g6
(dp364
g8
I9
sg9
I1
sg10
I3
sg11
I0
sg12
I0
sg13
I0
sg14
I0
ssg15
I173468453
ssI8
(dp365
g6
(dp366
g8
I9
sg9
I1
sg10
I3
sg11
I0
sg12
I0
sg13
I0
sg14
I0
ssg15
I247872360
ssI16
(dp367
g6
(dp368
g8
I9
sg9
I1
sg10
I4
sg11
I0
sg12
I0
sg13
I0
sg14
I0
ssg15
I377731889
ssssI262144
(dp369
I60
(dp370
I64
(dp371
g6
(dp372
V11
p373
I10
sV10
p374
I21
sV13
p375
I2
sV12
p376
I5
sV15
p377
I0
sV14
p378
I1
sV17
p379
I0
sV16
p380
I0
sV18
p381
I0
sg8
I18825
sg9
I3364
sg10
I8006
sg11
I684
sg12
I1441
sg13
I170
sg14
I341
sg52
I42
sg53
I85
ssg15
I257873670
ssI32
(dp382
g6
(dp383
V11
p384
I10
sV10
p385
I21
sV13
p386
I2
sV12
p387
I5
sV15
p388
I0
sV14
p389
I1
sV17
p390
I0
sV16
p391
I0
sV18
p392
I0
sg8
I18840
sg9
I3368
sg10
I8017
sg11
I685
sg12
I1447
sg13
I170
sg14
I341
sg52
I42
sg53
I85
ssg15
I225612396
ssI2
(dp393
g6
(dp394
V11
p395
I10
sV10
p396
I21
sV13
p397
I2
sV12
p398
I5
sV15
p399
I0
sV14
p400
I1
sV17
p401
I0
sV16
p402
I0
sV18
p403
I0
sg8
I18772
sg9
I3346
sg10
I7966
sg11
I685
sg12
I1440
sg13
I170
sg14
I341
sg52
I42
sg53
I85
ssg15
I21921049
ssI4
(dp404
g6
(dp405
V11
p406
I10
sV10
p407
I21
sV13
p408
I2
sV12
p409
I5
sV15
p410
I0
sV14
p411
I1
sV17
p412
I0
sV16
p413
I0
sV18
p414
I0
sg8
I18768
sg9
I3344
sg10
I7967
sg11
I685
sg12
I1439
sg13
I170
sg14
I341
sg52
I42
sg53
I85
ssg15
I41641658
ssI8
(dp415
g6
(dp416
V11
p417
I10
sV10
p418
I21
sV13
p419
I2
sV12
p420
I5
sV15
p421
I0
sV14
p422
I1
sV17
p423
I0
sV16
p424
I0
sV18
p425
I0
sg8
I18795
sg9
I3363
sg10
I7999
sg11
I685
sg12
I1443
sg13
I170
sg14
I341
sg52
I42
sg53
I85
ssg15
I73544877
ssI16
(dp426
g6
(dp427
V11
p428
I10
sV10
p429
I21
sV13
p430
I2
sV12
p431
I5
sV15
p432
I0
sV14
p433
I1
sV17
p434
I0
sV16
p435
I0
sV18
p436
I0
sg8
I18812
sg9
I3364
sg10
I8016
sg11
I685
sg12
I1443
sg13
I170
sg14
I341
sg52
I42
sg53
I85
ssg15
I133935182
sssI30
(dp437
I64
(dp438
g6
(dp439
V11
p440
I10
sV10
p441
I21
sV13
p442
I2
sV12
p443
I5
sV15
p444
I0
sV14
p445
I1
sV17
p446
I0
sV16
p447
I0
sV18
p448
I0
sg8
I18824
sg9
I3365
sg10
I8004
sg11
I685
sg12
I1443
sg13
I170
sg14
I341
sg52
I42
sg53
I85
ssg15
I354473762
ssI32
(dp449
g6
(dp450
V11
p451
I10
sV10
p452
I21
sV13
p453
I2
sV12
p454
I5
sV15
p455
I0
sV14
p456
I1
sV17
p457
I0
sV16
p458
I0
sV18
p459
I0
sg8
I18828
sg9
I3370
sg10
I8020
sg11
I685
sg12
I1448
sg13
I170
sg14
I341
sg52
I42
sg53
I85
ssg15
I247845950
ssI2
(dp460
g6
(dp461
V11
p462
I10
sV10
p463
I21
sV13
p464
I2
sV12
p465
I5
sV15
p466
I0
sV14
p467
I1
sV17
p468
I0
sV16
p469
I0
sV18
p470
I0
sg8
I18726
sg9
I3326
sg10
I7939
sg11
I684
sg12
I1437
sg13
I170
sg14
I341
sg52
I42
sg53
I85
ssg15
I23755983
ssI4
(dp471
g6
(dp472
V11
p473
I10
sV10
p474
I21
sV13
p475
I2
sV12
p476
I5
sV15
p477
I0
sV14
p478
I1
sV17
p479
I0
sV16
p480
I0
sV18
p481
I0
sg8
I18769
sg9
I3341
sg10
I7961
sg11
I683
sg12
I1437
sg13
I170
sg14
I341
sg52
I42
sg53
I85
ssg15
I43779569
ssI8
(dp482
g6
(dp483
V11
p484
I10
sV10
p485
I21
sV13
p486
I2
sV12
p487
I5
sV15
p488
I0
sV14
p489
I1
sV17
p490
I0
sV16
p491
I0
sV18
p492
I0
sg8
I18784
sg9
I3356
sg10
I7986
sg11
I685
sg12
I1443
sg13
I170
sg14
I341
sg52
I42
sg53
I85
ssg15
I76384553
ssI16
(dp493
g6
(dp494
V11
p495
I10
sV10
p496
I21
sV13
p497
I2
sV12
p498
I5
sV15
p499
I0
sV14
p500
I1
sV17
p501
I0
sV16
p502
I0
sV18
p503
I0
sg8
I18787
sg9
I3356
sg10
I7988
sg11
I684
sg12
I1440
sg13
I170
sg14
I341
sg52
I42
sg53
I85
ssg15
I137677855
sssssS'dynamic-max-level'
p504
(dp505
I128
(dp506
I60
(dp507
I64
(dp508
g6
(dp509
g8
I9
sg9
I1
sg10
I3
sg11
I0
sg12
I0
sg13
I0
sg14
I0
ssg15
I417244683
ssI32
(dp510
g6
(dp511
g8
I9
sg9
I1
sg10
I3
sg11
I0
sg12
I0
sg13
I0
sg14
I0
ssg15
I260705257
ssI2
(dp512
g6
(dp513
g8
I8
sg9
I1
sg10
I3
sg11
I0
sg12
I0
sg13
I0
sg14
I0
ssg15
I81374866
ssI4
(dp514
g6
(dp515
g8
I9
sg9
I1
sg10
I3
sg11
I0
sg12
I0
sg13
I0
sg14
I0
ssg15
I143678474
ssI8
(dp516
g6
(dp517
g8
I9
sg9
I1
sg10
I4
sg11
I0
sg12
I0
sg13
I0
sg14
I0
ssg15
I221532313
ssI16
(dp518
g6
(dp519
g8
I9
sg9
I1
sg10
I3
sg11
I0
sg12
I0
sg13
I0
sg14
I0
ssg15
I250167660
sssI30
(dp520
I64
(dp521
g6
(dp522
g8
I9
sg9
I1
sg10
I3
sg11
I0
sg12
I0
sg13
I0
sg14
I0
ssg15
I580934433
ssI32
(dp523
g6
(dp524
g8
I9
sg9
I1
sg10
I3
sg11
I0
sg12
I0
sg13
I0
sg14
I0
ssg15
I528669422
ssI2
(dp525
g6
(dp526
g8
I9
sg9
I1
sg10
I4
sg11
I0
sg12
I0
sg13
I0
sg14
I0
ssg15
I104409664
ssI4
(dp527
g6
(dp528
g8
I9
sg9
I1
sg10
I4
sg11
I0
sg12
I0
sg13
I0
sg14
I0
ssg15
I171982284
ssI8
(dp529
g6
(dp530
g8
I9
sg9
I1
sg10
I3
sg11
I0
sg12
I0
sg13
I0
sg14
I0
ssg15
I236881816
ssI16
(dp531
g6
(dp532
g8
I9
sg9
I1
sg10
I4
sg11
I0
sg12
I0
sg13
I0
sg14
I0
ssg15
I381670581
ssssI262144
(dp533
I60
(dp534
I64
(dp535
g6
(dp536
V11
p537
I10
sV10
p538
I21
sV13
p539
I2
sV12
p540
I5
sV15
p541
I0
sV14
p542
I1
sV17
p543
I0
sV16
p544
I0
sV18
p545
I0
sg8
I18839
sg9
I3368
sg10
I8015
sg11
I684
sg12
I1444
sg13
I170
sg14
I341
sg52
I42
sg53
I85
ssg15
I341336908
ssI32
(dp546
g6
(dp547
V11
p548
I10
sV10
p549
I21
sV13
p550
I2
sV12
p551
I5
sV15
p552
I0
sV14
p553
I1
sV17
p554
I0
sV16
p555
I0
sV18
p556
I0
sg8
I18831
sg9
I3371
sg10
I8016
sg11
I685
sg12
I1442
sg13
I170
sg14
I341
sg52
I42
sg53
I85
ssg15
I235281095
ssI2
(dp557
g6
(dp558
V11
p559
I10
sV10
p560
I21
sV13
p561
I2
sV12
p562
I5
sV15
p563
I0
sV14
p564
I1
sV17
p565
I0
sV16
p566
I0
sV18
p567
I0
sg8
I18760
sg9
I3336
sg10
I7952
sg11
I684
sg12
I1439
sg13
I170
sg14
I341
sg52
I42
sg53
I85
ssg15
I22435895
ssI4
(dp568
g6
(dp569
V11
p570
I10
sV10
p571
I21
sV13
p572
I2
sV12
p573
I5
sV15
p574
I0
sV14
p575
I1
sV17
p576
I0
sV16
p577
I0
sV18
p578
I0
sg8
I18773
sg9
I3354
sg10
I7975
sg11
I684
sg12
I1441
sg13
I170
sg14
I341
sg52
I42
sg53
I85
ssg15
I41137641
ssI8
(dp579
g6
(dp580
V11
p581
I10
sV10
p582
I21
sV13
p583
I2
sV12
p584
I5
sV15
p585
I0
sV14
p586
I1
sV17
p587
I0
sV16
p588
I0
sV18
p589
I0
sg8
I18788
sg9
I3353
sg10
I7987
sg11
I685
sg12
I1440
sg13
I170
sg14
I341
sg52
I42
sg53
I85
ssg15
I72263433
ssI16
(dp590
g6
(dp591
V11
p592
I10
sV10
p593
I21
sV13
p594
I2
sV12
p595
I5
sV15
p596
I0
sV14
p597
I1
sV17
p598
I0
sV16
p599
I0
sV18
p600
I0
sg8
I18805
sg9
I3362
sg10
I8004
sg11
I684
sg12
I1444
sg13
I170
sg14
I341
sg52
I42
sg53
I85
ssg15
I131322282
sssI30
(dp601
I64
(dp602
g6
(dp603
V11
p604
I10
sV10
p605
I21
sV13
p606
I2
sV12
p607
I5
sV15
p608
I0
sV14
p609
I1
sV17
p610
I0
sV16
p611
I0
sV18
p612
I0
sg8
I18824
sg9
I3361
sg10
I8009
sg11
I685
sg12
I1446
sg13
I170
sg14
I341
sg52
I42
sg53
I85
ssg15
I359966763
ssI32
(dp613
g6
(dp614
V11
p615
I10
sV10
p616
I21
sV13
p617
I2
sV12
p618
I5
sV15
p619
I0
sV14
p620
I1
sV17
p621
I0
sV16
p622
I0
sV18
p623
I0
sg8
I18816
sg9
I3363
sg10
I7997
sg11
I685
sg12
I1443
sg13
I170
sg14
I341
sg52
I42
sg53
I85
ssg15
I246627968
ssI2
(dp624
g6
(dp625
V11
p626
I10
sV10
p627
I21
sV13
p628
I2
sV12
p629
I5
sV15
p630
I0
sV14
p631
I1
sV17
p632
I0
sV16
p633
I0
sV18
p634
I0
sg8
I18721
sg9
I3325
sg10
I7933
sg11
I684
sg12
I1433
sg13
I170
sg14
I341
sg52
I42
sg53
I85
ssg15
I23626757
ssI4
(dp635
g6
(dp636
V11
p637
I10
sV10
p638
I21
sV13
p639
I2
sV12
p640
I5
sV15
p641
I0
sV14
p642
I1
sV17
p643
I0
sV16
p644
I0
sV18
p645
I0
sg8
I18772
sg9
I3345
sg10
I7973
sg11
I684
sg12
I1440
sg13
I170
sg14
I341
sg52
I42
sg53
I85
ssg15
I43500617
ssI8
(dp646
g6
(dp647
V11
p648
I10
sV10
p649
I21
sV13
p650
I2
sV12
p651
I5
sV15
p652
I0
sV14
p653
I1
sV17
p654
I0
sV16
p655
I0
sV18
p656
I0
sg8
I18793
sg9
I3351
sg10
I7979
sg11
I685
sg12
I1441
sg13
I170
sg14
I341
sg52
I42
sg53
I85
ssg15
I76882456
ssI16
(dp657
g6
(dp658
V11
p659
I10
sV10
p660
I21
sV13
p661
I2
sV12
p662
I5
sV15
p663
I0
sV14
p664
I1
sV17
p665
I0
sV16
p666
I0
sV18
p667
I0
sg8
I18817
sg9
I3368
sg10
I8013
sg11
I685
sg12
I1444
sg13
I170
sg14
I341
sg52
I42
sg53
I85
ssg15
I139304912
sssssS'originl-rotating-skiplist'
p668
(dp669
I128
(dp670
I60
(dp671
I64
(dp672
g6
(dp673
g8
I8
sg9
I1
sg10
I3
sg11
I0
sg12
I0
sg13
I0
sg14
I0
ssg15
I472029246
ssI32
(dp674
g6
(dp675
g8
I9
sg9
I1
sg10
I4
sg11
I0
sg12
I0
sg13
I0
sg14
I0
ssg15
I407421476
ssI2
(dp676
g6
(dp677
g8
I9
sg9
I1
sg10
I3
sg11
I0
sg12
I0
sg13
I0
sg14
I0
ssg15
I92551820
ssI4
(dp678
g6
(dp679
g8
I9
sg9
I1
sg10
I4
sg11
I0
sg12
I0
sg13
I0
sg14
I0
ssg15
I140418080
ssI8
(dp680
g6
(dp681
g8
I9
sg9
I1
sg10
I4
sg11
I0
sg12
I0
sg13
I0
sg14
I0
ssg15
I189493654
ssI16
(dp682
g6
(dp683
g8
I9
sg9
I1
sg10
I3
sg11
I0
sg12
I0
sg13
I0
sg14
I0
ssg15
I304371296
sssI30
(dp684
I64
(dp685
g6
(dp686
g8
I9
sg9
I1
sg10
I3
sg11
I0
sg12
I0
sg13
I0
sg14
I0
ssg15
I578952606
ssI32
(dp687
g6
(dp688
g8
I9
sg9
I1
sg10
I3
sg11
I0
sg12
I0
sg13
I0
sg14
I0
ssg15
I498599306
ssI2
(dp689
g6
(dp690
g8
I9
sg9
I1
sg10
I3
sg11
I0
sg12
I0
sg13
I0
sg14
I0
ssg15
I106378343
ssI4
(dp691
g6
(dp692
g8
I9
sg9
I1
sg10
I4
sg11
I0
sg12
I0
sg13
I0
sg14
I0
ssg15
I173151888
ssI8
(dp693
g6
(dp694
g8
I9
sg9
I1
sg10
I3
sg11
I0
sg12
I0
sg13
I0
sg14
I0
ssg15
I230839244
ssI16
(dp695
g6
(dp696
g8
I9
sg9
I1
sg10
I3
sg11
I0
sg12
I0
sg13
I0
sg14
I0
ssg15
I374957786
ssssI262144
(dp697
I60
(dp698
I64
(dp699
g6
(dp700
V11
p701
I10
sV10
p702
I21
sV13
p703
I2
sV12
p704
I5
sV15
p705
I0
sV14
p706
I1
sV17
p707
I0
sV16
p708
I0
sV18
p709
I0
sg8
I18815
sg9
I3370
sg10
I8008
sg11
I685
sg12
I1445
sg13
I170
sg14
I341
sg52
I42
sg53
I85
ssg15
I380983294
ssI32
(dp710
g6
(dp711
V11
p712
I10
sV10
p713
I21
sV13
p714
I2
sV12
p715
I5
sV15
p716
I0
sV14
p717
I1
sV17
p718
I0
sV16
p719
I0
sV18
p720
I0
sg8
I18846
sg9
I3369
sg10
I8022
sg11
I684
sg12
I1446
sg13
I170
sg14
I341
sg52
I42
sg53
I85
ssg15
I239321201
ssI2
(dp721
g6
(dp722
V11
p723
I10
sV10
p724
I21
sV13
p725
I2
sV12
p726
I5
sV15
p727
I0
sV14
p728
I1
sV17
p729
I0
sV16
p730
I0
sV18
p731
I0
sg8
I18743
sg9
I3336
sg10
I7949
sg11
I684
sg12
I1434
sg13
I170
sg14
I341
sg52
I42
sg53
I85
ssg15
I21893704
ssI4
(dp732
g6
(dp733
V11
p734
I10
sV10
p735
I21
sV13
p736
I2
sV12
p737
I5
sV15
p738
I0
sV14
p739
I1
sV17
p740
I0
sV16
p741
I0
sV18
p742
I0
sg8
I18783
sg9
I3347
sg10
I7964
sg11
I684
sg12
I1439
sg13
I170
sg14
I341
sg52
I42
sg53
I85
ssg15
I41302529
ssI8
(dp743
g6
(dp744
V11
p745
I10
sV10
p746
I21
sV13
p747
I2
sV12
p748
I5
sV15
p749
I0
sV14
p750
I1
sV17
p751
I0
sV16
p752
I0
sV18
p753
I0
sg8
I18803
sg9
I3359
sg10
I7995
sg11
I685
sg12
I1440
sg13
I170
sg14
I341
sg52
I42
sg53
I85
ssg15
I73551666
ssI16
(dp754
g6
(dp755
V11
p756
I10
sV10
p757
I21
sV13
p758
I2
sV12
p759
I5
sV15
p760
I0
sV14
p761
I1
sV17
p762
I0
sV16
p763
I0
sV18
p764
I0
sg8
I18806
sg9
I3361
sg10
I7996
sg11
I684
sg12
I1444
sg13
I170
sg14
I341
sg52
I42
sg53
I85
ssg15
I132368856
sssI30
(dp765
I64
(dp766
g6
(dp767
V11
p768
I10
sV10
p769
I21
sV13
p770
I2
sV12
p771
I5
sV15
p772
I0
sV14
p773
I1
sV17
p774
I0
sV16
p775
I0
sV18
p776
I0
sg8
I18830
sg9
I3367
sg10
I8016
sg11
I685
sg12
I1446
sg13
I170
sg14
I341
sg52
I42
sg53
I85
ssg15
I384875052
ssI32
(dp777
g6
(dp778
V11
p779
I10
sV10
p780
I21
sV13
p781
I2
sV12
p782
I5
sV15
p783
I0
sV14
p784
I1
sV17
p785
I0
sV16
p786
I0
sV18
p787
I0
sg8
I18824
sg9
I3371
sg10
I8006
sg11
I685
sg12
I1449
sg13
I170
sg14
I341
sg52
I42
sg53
I85
ssg15
I250805788
ssI2
(dp788
g6
(dp789
V11
p790
I10
sV10
p791
I21
sV13
p792
I2
sV12
p793
I5
sV15
p794
I0
sV14
p795
I1
sV17
p796
I0
sV16
p797
I0
sV18
p798
I0
sg8
I18719
sg9
I3331
sg10
I7940
sg11
I684
sg12
I1436
sg13
I170
sg14
I341
sg52
I42
sg53
I85
ssg15
I23586691
ssI4
(dp799
g6
(dp800
V11
p801
I10
sV10
p802
I21
sV13
p803
I2
sV12
p804
I5
sV15
p805
I0
sV14
p806
I1
sV17
p807
I0
sV16
p808
I0
sV18
p809
I0
sg8
I18757
sg9
I3344
sg10
I7960
sg11
I685
sg12
I1439
sg13
I170
sg14
I341
sg52
I42
sg53
I85
ssg15
I43538554
ssI8
(dp810
g6
(dp811
V11
p812
I10
sV10
p813
I21
sV13
p814
I2
sV12
p815
I5
sV15
p816
I0
sV14
p817
I1
sV17
p818
I0
sV16
p819
I0
sV18
p820
I0
sg8
I18793
sg9
I3354
sg10
I7975
sg11
I684
sg12
I1438
sg13
I170
sg14
I341
sg52
I42
sg53
I85
ssg15
I77673753
ssI16
(dp821
g6
(dp822
V11
p823
I10
sV10
p824
I21
sV13
p825
I2
sV12
p826
I5
sV15
p827
I0
sV14
p828
I1
sV17
p829
I0
sV16
p830
I0
sV18
p831
I0
sg8
I18798
sg9
I3349
sg10
I7980
sg11
I684
sg12
I1437
sg13
I170
sg14
I341
sg52
I42
sg53
I85
ssg15
I141046473
sssssS'many-skiplists'
p832
(dp833
I128
(dp834
I60
(dp835
I64
(dp836
g6
(dp837
g8
I0
sg9
I0
sg10
I0
ssg15
I709204248
ssI32
(dp838
g6
(dp839
g8
I0
sg9
I0
sg10
I0
ssg15
I486498600
ssI2
(dp840
g6
(dp841
g8
I9
sg9
I1
sg10
I3
sg11
I0
sg12
I0
sg13
I0
sg14
I0
ssg15
I57839450
ssI4
(dp842
g6
(dp843
g8
I4
sg9
I0
sg10
I2
sg11
I0
sg12
I0
sg14
I0
ssg15
I106979077
ssI8
(dp844
g6
(dp845
g8
I1
sg9
I0
sg10
I0
sg11
I0
sg12
I0
ssg15
I170807506
ssI16
(dp846
g6
(dp847
g8
I0
sg9
I0
sg10
I0
sg12
I0
ssg15
I297717353
sssI30
(dp848
I64
(dp849
g6
(dp850
g8
I0
sg9
I0
sg10
I0
ssg15
I897612601
ssI32
(dp851
g6
(dp852
g8
I0
sg9
I0
sg10
I0
ssg15
I588119266
ssI2
(dp853
g6
(dp854
g8
I9
sg9
I1
sg10
I4
sg11
I0
sg12
I0
sg13
I0
sg14
I0
ssg15
I74474091
ssI4
(dp855
g6
(dp856
g8
I4
sg9
I0
sg10
I2
sg11
I0
sg12
I0
sg14
I0
ssg15
I126229048
ssI8
(dp857
g6
(dp858
g8
I2
sg9
I0
sg10
I1
sg11
I0
sg12
I0
ssg15
I210790031
ssI16
(dp859
g6
(dp860
g8
I0
sg9
I0
sg10
I0
sg12
I0
ssg15
I360529142
ssssI262144
(dp861
I60
(dp862
I64
(dp863
g6
(dp864
V11
p865
I0
sV10
p866
I0
sV13
p867
I0
sV12
p868
I0
sg8
I541
sg9
I94
sg10
I226
sg11
I21
sg12
I43
sg13
I5
sg14
I10
sg52
I1
sg53
I2
ssg15
I200175176
ssI32
(dp869
g6
(dp870
V11
p871
I0
sV10
p872
I1
sV13
p873
I0
sV12
p874
I0
sV14
p875
I0
sg8
I1131
sg9
I198
sg10
I478
sg11
I43
sg12
I88
sg13
I10
sg14
I21
sg52
I2
sg53
I5
ssg15
I196511959
ssI2
(dp876
g6
(dp877
V11
p878
I10
sV10
p879
I21
sV13
p880
I2
sV12
p881
I5
sV15
p882
I0
sV14
p883
I1
sV17
p884
I0
sV16
p885
I0
sV18
p886
I0
sg8
I18723
sg9
I3319
sg10
I7933
sg11
I684
sg12
I1430
sg13
I170
sg14
I341
sg52
I42
sg53
I85
ssg15
I19484694
ssI4
(dp887
g6
(dp888
V11
p889
I5
sV10
p890
I10
sV13
p891
I1
sV12
p892
I2
sV15
p893
I0
sV14
p894
I0
sV17
p895
I0
sV16
p896
I0
sg8
I9379
sg9
I1667
sg10
I3985
sg11
I342
sg12
I718
sg13
I85
sg14
I170
sg52
I21
sg53
I42
ssg15
I35362441
ssI8
(dp897
g6
(dp898
V11
p899
I2
sV10
p900
I5
sV13
p901
I0
sV12
p902
I1
sV15
p903
I0
sV14
p904
I0
sV16
p905
I0
sg8
I4682
sg9
I831
sg10
I1986
sg11
I170
sg12
I357
sg13
I42
sg14
I85
sg52
I10
sg53
I21
ssg15
I64308738
ssI16
(dp906
g6
(dp907
V11
p908
I1
sV10
p909
I2
sV13
p910
I0
sV12
p911
I0
sV15
p912
I0
sV14
p913
I0
sg8
I2327
sg9
I412
sg10
I987
sg11
I85
sg12
I177
sg13
I21
sg14
I42
sg52
I5
sg53
I10
ssg15
I112609854
sssI30
(dp914
I64
(dp915
g6
(dp916
V11
p917
I0
sV10
p918
I0
sV13
p919
I0
sV12
p920
I0
sg8
I537
sg9
I95
sg10
I225
sg11
I21
sg12
I43
sg13
I5
sg14
I10
sg52
I1
sg53
I2
ssg15
I305522590
ssI32
(dp921
g6
(dp922
V11
p923
I0
sV10
p924
I1
sV13
p925
I0
sV12
p926
I0
sV14
p927
I0
sg8
I1131
sg9
I200
sg10
I480
sg11
I42
sg12
I88
sg13
I10
sg14
I21
sg52
I2
sg53
I5
ssg15
I219674250
ssI2
(dp928
g6
(dp929
V11
p930
I10
sV10
p931
I21
sV13
p932
I2
sV12
p933
I5
sV15
p934
I0
sV14
p935
I1
sV17
p936
I0
sV16
p937
I0
sV18
p938
I0
sg8
I18598
sg9
I3299
sg10
I7882
sg11
I684
sg12
I1426
sg13
I170
sg14
I341
sg52
I42
sg53
I85
ssg15
I21069440
ssI4
(dp939
g6
(dp940
V11
p941
I5
sV10
p942
I10
sV13
p943
I1
sV12
p944
I2
sV15
p945
I0
sV14
p946
I0
sV17
p947
I0
sV16
p948
I0
sg8
I9362
sg9
I1667
sg10
I3975
sg11
I342
sg12
I718
sg13
I85
sg14
I170
sg52
I21
sg53
I42
ssg15
I38996363
ssI8
(dp949
g6
(dp950
V11
p951
I2
sV10
p952
I5
sV13
p953
I0
sV12
p954
I1
sV15
p955
I0
sV14
p956
I0
sV16
p957
I0
sg8
I4691
sg9
I831
sg10
I1988
sg11
I171
sg12
I359
sg13
I42
sg14
I85
sg52
I10
sg53
I21
ssg15
I71097107
ssI16
(dp958
g6
(dp959
V11
p960
I1
sV10
p961
I2
sV13
p962
I0
sV12
p963
I0
sV15
p964
I0
sV14
p965
I0
sg8
I2325
sg9
I411
sg10
I984
sg11
I85
sg12
I178
sg13
I21
sg14
I42
sg52
I5
sg53
I10
ssg15
I125029070
sssssS'level-delete-by-ratio-2_3'
p966
(dp967
I128
(dp968
I60
(dp969
I64
(dp970
g6
(dp971
g8
I9
sg9
I1
sg10
I3
sg11
I0
sg12
I0
sg13
I0
sg14
I0
ssg15
I467867060
ssI32
(dp972
g6
(dp973
g8
I9
sg9
I1
sg10
I4
sg11
I0
sg12
I0
sg13
I0
sg14
I0
ssg15
I412261746
ssI2
(dp974
g6
(dp975
g8
I9
sg9
I1
sg10
I3
sg11
I0
sg12
I0
sg13
I0
sg14
I0
ssg15
I90461505
ssI4
(dp976
g6
(dp977
g8
I9
sg9
I1
sg10
I3
sg11
I0
sg12
I0
sg13
I0
sg14
I0
ssg15
I139845355
ssI8
(dp978
g6
(dp979
g8
I9
sg9
I1
sg10
I4
sg11
I0
sg12
I0
sg13
I0
sg14
I0
ssg15
I188152953
ssI16
(dp980
g6
(dp981
g8
I9
sg9
I1
sg10
I4
sg11
I0
sg12
I0
sg13
I0
sg14
I0
ssg15
I312096004
sssI30
(dp982
I64
(dp983
g6
(dp984
g8
I9
sg9
I1
sg10
I3
sg11
I0
sg12
I0
sg13
I0
sg14
I0
ssg15
I578078934
ssI32
(dp985
g6
(dp986
g8
I9
sg9
I1
sg10
I4
sg11
I0
sg12
I0
sg13
I0
sg14
I0
ssg15
I499085612
ssI2
(dp987
g6
(dp988
g8
I9
sg9
I1
sg10
I3
sg11
I0
sg12
I0
sg13
I0
sg14
I0
ssg15
I108230665
ssI4
(dp989
g6
(dp990
g8
I9
sg9
I1
sg10
I4
sg11
I0
sg12
I0
sg13
I0
sg14
I0
ssg15
I172989694
ssI8
(dp991
g6
(dp992
g8
I9
sg9
I1
sg10
I3
sg11
I0
sg12
I0
sg13
I0
sg14
I0
ssg15
I231729613
ssI16
(dp993
g6
(dp994
g8
I9
sg9
I1
sg10
I4
sg11
I0
sg12
I0
sg13
I0
sg14
I0
ssg15
I366914052
ssssI262144
(dp995
I60
(dp996
I64
(dp997
g6
(dp998
V11
p999
I10
sV10
p1000
I21
sV13
p1001
I2
sV12
p1002
I5
sV15
p1003
I0
sV14
p1004
I1
sV17
p1005
I0
sV16
p1006
I0
sV18
p1007
I0
sg8
I18835
sg9
I3368
sg10
I8015
sg11
I685
sg12
I1445
sg13
I170
sg14
I341
sg52
I42
sg53
I85
ssg15
I366115005
ssI32
(dp1008
g6
(dp1009
V11
p1010
I10
sV10
p1011
I21
sV13
p1012
I2
sV12
p1013
I5
sV15
p1014
I0
sV14
p1015
I1
sV17
p1016
I0
sV16
p1017
I0
sV18
p1018
I0
sg8
I18836
sg9
I3373
sg10
I8023
sg11
I684
sg12
I1446
sg13
I170
sg14
I341
sg52
I42
sg53
I85
ssg15
I242421622
ssI2
(dp1019
g6
(dp1020
V11
p1021
I10
sV10
p1022
I21
sV13
p1023
I2
sV12
p1024
I5
sV15
p1025
I0
sV14
p1026
I1
sV17
p1027
I0
sV16
p1028
I0
sV18
p1029
I0
sg8
I18753
sg9
I3343
sg10
I7960
sg11
I685
sg12
I1440
sg13
I170
sg14
I341
sg52
I42
sg53
I85
ssg15
I21883727
ssI4
(dp1030
g6
(dp1031
V11
p1032
I10
sV10
p1033
I21
sV13
p1034
I2
sV12
p1035
I5
sV15
p1036
I0
sV14
p1037
I1
sV17
p1038
I0
sV16
p1039
I0
sV18
p1040
I0
sg8
I18767
sg9
I3346
sg10
I7972
sg11
I684
sg12
I1438
sg13
I170
sg14
I341
sg52
I42
sg53
I85
ssg15
I40673029
ssI8
(dp1041
g6
(dp1042
V11
p1043
I10
sV10
p1044
I21
sV13
p1045
I2
sV12
p1046
I5
sV15
p1047
I0
sV14
p1048
I1
sV17
p1049
I0
sV16
p1050
I0
sV18
p1051
I0
sg8
I18810
sg9
I3360
sg10
I7993
sg11
I685
sg12
I1441
sg13
I170
sg14
I341
sg52
I42
sg53
I85
ssg15
I73238401
ssI16
(dp1052
g6
(dp1053
V11
p1054
I10
sV10
p1055
I21
sV13
p1056
I2
sV12
p1057
I5
sV15
p1058
I0
sV14
p1059
I1
sV17
p1060
I0
sV16
p1061
I0
sV18
p1062
I0
sg8
I18827
sg9
I3368
sg10
I8011
sg11
I685
sg12
I1446
sg13
I170
sg14
I341
sg52
I42
sg53
I85
ssg15
I132883250
sssI30
(dp1063
I64
(dp1064
g6
(dp1065
V11
p1066
I10
sV10
p1067
I21
sV13
p1068
I2
sV12
p1069
I5
sV15
p1070
I0
sV14
p1071
I1
sV17
p1072
I0
sV16
p1073
I0
sV18
p1074
I0
sg8
I18834
sg9
I3364
sg10
I8014
sg11
I685
sg12
I1440
sg13
I170
sg14
I341
sg52
I42
sg53
I85
ssg15
I332917499
ssI32
(dp1075
g6
(dp1076
V11
p1077
I10
sV10
p1078
I21
sV13
p1079
I2
sV12
p1080
I5
sV15
p1081
I0
sV14
p1082
I1
sV17
p1083
I0
sV16
p1084
I0
sV18
p1085
I0
sg8
I18818
sg9
I3358
sg10
I8002
sg11
I684
sg12
I1444
sg13
I170
sg14
I341
sg52
I42
sg53
I85
ssg15
I249530937
ssI2
(dp1086
g6
(dp1087
V11
p1088
I10
sV10
p1089
I21
sV13
p1090
I2
sV12
p1091
I5
sV15
p1092
I0
sV14
p1093
I1
sV17
p1094
I0
sV16
p1095
I0
sV18
p1096
I0
sg8
I18738
sg9
I3321
sg10
I7946
sg11
I684
sg12
I1435
sg13
I170
sg14
I341
sg52
I42
sg53
I85
ssg15
I23178746
ssI4
(dp1097
g6
(dp1098
V11
p1099
I10
sV10
p1100
I21
sV13
p1101
I2
sV12
p1102
I5
sV15
p1103
I0
sV14
p1104
I1
sV17
p1105
I0
sV16
p1106
I0
sV18
p1107
I0
sg8
I18763
sg9
I3344
sg10
I7968
sg11
I684
sg12
I1440
sg13
I170
sg14
I341
sg52
I42
sg53
I85
ssg15
I43410659
ssI8
(dp1108
g6
(dp1109
V11
p1110
I10
sV10
p1111
I21
sV13
p1112
I2
sV12
p1113
I5
sV15
p1114
I0
sV14
p1115
I1
sV17
p1116
I0
sV16
p1117
I0
sV18
p1118
I0
sg8
I18793
sg9
I3351
sg10
I7974
sg11
I684
sg12
I1439
sg13
I170
sg14
I341
sg52
I42
sg53
I85
ssg15
I77610346
ssI16
(dp1119
g6
(dp1120
V11
p1121
I10
sV10
p1122
I21
sV13
p1123
I2
sV12
p1124
I5
sV15
p1125
I0
sV14
p1126
I1
sV17
p1127
I0
sV16
p1128
I0
sV18
p1129
I0
sg8
I18804
sg9
I3360
sg10
I7993
sg11
I684
sg12
I1442
sg13
I170
sg14
I341
sg52
I42
sg53
I85
ssg15
I140646151
sssssS'max-level-40'
p1130
(dp1131
I128
(dp1132
I60
(dp1133
I64
(dp1134
g6
(dp1135
g8
I9
sg9
I1
sg10
I3
sg11
I0
sg12
I0
sg13
I0
sg14
I0
ssg15
I473956303
ssI32
(dp1136
g6
(dp1137
g8
I9
sg9
I1
sg10
I4
sg11
I0
sg12
I0
sg13
I0
sg14
I0
ssg15
I409258540
ssI2
(dp1138
g6
(dp1139
g8
I9
sg9
I1
sg10
I4
sg11
I0
sg12
I0
sg13
I0
sg14
I0
ssg15
I89405594
ssI4
(dp1140
g6
(dp1141
g8
I9
sg9
I1
sg10
I4
sg11
I0
sg12
I0
sg13
I0
sg14
I0
ssg15
I136160979
ssI8
(dp1142
g6
(dp1143
g8
I8
sg9
I1
sg10
I3
sg11
I0
sg12
I0
sg13
I0
sg14
I0
ssg15
I183069017
ssI16
(dp1144
g6
(dp1145
g8
I9
sg9
I1
sg10
I3
sg11
I0
sg12
I0
sg13
I0
sg14
I0
ssg15
I295587738
sssI30
(dp1146
I64
(dp1147
g6
(dp1148
g8
I9
sg9
I1
sg10
I3
sg11
I0
sg12
I0
sg13
I0
sg14
I0
ssg15
I583773855
ssI32
(dp1149
g6
(dp1150
g8
I9
sg9
I1
sg10
I4
sg11
I0
sg12
I0
sg13
I0
sg14
I0
ssg15
I496765234
ssI2
(dp1151
g6
(dp1152
g8
I9
sg9
I1
sg10
I3
sg11
I0
sg12
I0
sg13
I0
sg14
I0
ssg15
I104803985
ssI4
(dp1153
g6
(dp1154
g8
I9
sg9
I1
sg10
I3
sg11
I0
sg12
I0
sg13
I0
sg14
I0
ssg15
I168284147
ssI8
(dp1155
g6
(dp1156
g8
I9
sg9
I1
sg10
I3
sg11
I0
sg12
I0
sg13
I0
sg14
I0
ssg15
I227432152
ssI16
(dp1157
g6
(dp1158
g8
I9
sg9
I1
sg10
I3
sg11
I0
sg12
I0
sg13
I0
sg14
I0
ssg15
I360917328
ssssI262144
(dp1159
I60
(dp1160
I64
(dp1161
g6
(dp1162
V11
p1163
I10
sV10
p1164
I21
sV13
p1165
I2
sV12
p1166
I5
sV15
p1167
I0
sV14
p1168
I1
sV17
p1169
I0
sV16
p1170
I0
sV18
p1171
I0
sg8
I18848
sg9
I3375
sg10
I8031
sg11
I684
sg12
I1446
sg13
I170
sg14
I341
sg52
I42
sg53
I85
ssg15
I347383284
ssI32
(dp1172
g6
(dp1173
V11
p1174
I10
sV10
p1175
I21
sV13
p1176
I2
sV12
p1177
I5
sV15
p1178
I0
sV14
p1179
I1
sV17
p1180
I0
sV16
p1181
I0
sV18
p1182
I0
sg8
I18845
sg9
I3374
sg10
I8024
sg11
I685
sg12
I1444
sg13
I170
sg14
I341
sg52
I42
sg53
I85
ssg15
I227611143
ssI2
(dp1183
g6
(dp1184
V11
p1185
I10
sV10
p1186
I21
sV13
p1187
I2
sV12
p1188
I5
sV15
p1189
I0
sV14
p1190
I1
sV17
p1191
I0
sV16
p1192
I0
sV18
p1193
I0
sg8
I18769
sg9
I3343
sg10
I7960
sg11
I685
sg12
I1439
sg13
I170
sg14
I341
sg52
I42
sg53
I85
ssg15
I20506103
ssI4
(dp1194
g6
(dp1195
V11
p1196
I10
sV10
p1197
I21
sV13
p1198
I2
sV12
p1199
I5
sV15
p1200
I0
sV14
p1201
I1
sV17
p1202
I0
sV16
p1203
I0
sV18
p1204
I0
sg8
I18789
sg9
I3350
sg10
I7973
sg11
I684
sg12
I1439
sg13
I170
sg14
I341
sg52
I42
sg53
I85
ssg15
I37836762
ssI8
(dp1205
g6
(dp1206
V11
p1207
I10
sV10
p1208
I21
sV13
p1209
I2
sV12
p1210
I5
sV15
p1211
I0
sV14
p1212
I1
sV17
p1213
I0
sV16
p1214
I0
sV18
p1215
I0
sg8
I18803
sg9
I3349
sg10
I7989
sg11
I684
sg12
I1440
sg13
I170
sg14
I341
sg52
I42
sg53
I85
ssg15
I68844787
ssI16
(dp1216
g6
(dp1217
V11
p1218
I10
sV10
p1219
I21
sV13
p1220
I2
sV12
p1221
I5
sV15
p1222
I0
sV14
p1223
I1
sV17
p1224
I0
sV16
p1225
I0
sV18
p1226
I0
sg8
I18828
sg9
I3367
sg10
I8011
sg11
I685
sg12
I1444
sg13
I170
sg14
I341
sg52
I42
sg53
I85
ssg15
I124293158
sssI30
(dp1227
I64
(dp1228
g6
(dp1229
V11
p1230
I10
sV10
p1231
I21
sV13
p1232
I2
sV12
p1233
I5
sV15
p1234
I0
sV14
p1235
I1
sV17
p1236
I0
sV16
p1237
I0
sV18
p1238
I0
sg8
I18815
sg9
I3367
sg10
I8010
sg11
I684
sg12
I1443
sg13
I170
sg14
I341
sg52
I42
sg53
I85
ssg15
I357363503
ssI32
(dp1239
g6
(dp1240
V11
p1241
I10
sV10
p1242
I21
sV13
p1243
I2
sV12
p1244
I5
sV15
p1245
I0
sV14
p1246
I1
sV17
p1247
I0
sV16
p1248
I0
sV18
p1249
I0
sg8
I18837
sg9
I3375
sg10
I8021
sg11
I684
sg12
I1448
sg13
I170
sg14
I341
sg52
I42
sg53
I85
ssg15
I236115210
ssI2
(dp1250
g6
(dp1251
V11
p1252
I10
sV10
p1253
I21
sV13
p1254
I2
sV12
p1255
I5
sV15
p1256
I0
sV14
p1257
I1
sV17
p1258
I0
sV16
p1259
I0
sV18
p1260
I0
sg8
I18709
sg9
I3332
sg10
I7932
sg11
I684
sg12
I1434
sg13
I170
sg14
I341
sg52
I42
sg53
I85
ssg15
I22113099
ssI4
(dp1261
g6
(dp1262
V11
p1263
I10
sV10
p1264
I21
sV13
p1265
I2
sV12
p1266
I5
sV15
p1267
I0
sV14
p1268
I1
sV17
p1269
I0
sV16
p1270
I0
sV18
p1271
I0
sg8
I18759
sg9
I3343
sg10
I7955
sg11
I684
sg12
I1441
sg13
I170
sg14
I341
sg52
I42
sg53
I85
ssg15
I40812931
ssI8
(dp1272
g6
(dp1273
V11
p1274
I10
sV10
p1275
I21
sV13
p1276
I2
sV12
p1277
I5
sV15
p1278
I0
sV14
p1279
I1
sV17
p1280
I0
sV16
p1281
I0
sV18
p1282
I0
sg8
I18784
sg9
I3346
sg10
I7975
sg11
I684
sg12
I1439
sg13
I170
sg14
I341
sg52
I42
sg53
I85
ssg15
I72834178
ssI16
(dp1283
g6
(dp1284
V11
p1285
I10
sV10
p1286
I21
sV13
p1287
I2
sV12
p1288
I5
sV15
p1289
I0
sV14
p1290
I1
sV17
p1291
I0
sV16
p1292
I0
sV18
p1293
I0
sg8
I18798
sg9
I3355
sg10
I7995
sg11
I685
sg12
I1441
sg13
I170
sg14
I341
sg52
I42
sg53
I85
ssg15
I131302114
sssssS'background_no_sleep'
p1294
(dp1295
I128
(dp1296
I60
(dp1297
I64
(dp1298
g6
(dp1299
g8
I9
sg9
I1
sg10
I4
sg11
I0
sg12
I0
sg13
I0
sg14
I0
ssg15
I469422325
ssI32
(dp1300
g6
(dp1301
g8
I9
sg9
I1
sg10
I3
sg11
I0
sg12
I0
sg13
I0
sg14
I0
ssg15
I406791619
ssI2
(dp1302
g6
(dp1303
g8
I9
sg9
I1
sg10
I4
sg11
I0
sg12
I0
sg13
I0
sg14
I0
ssg15
I90711163
ssI4
(dp1304
g6
(dp1305
g8
I9
sg9
I1
sg10
I3
sg11
I0
sg12
I0
sg13
I0
sg14
I0
ssg15
I137016670
ssI8
(dp1306
g6
(dp1307
g8
I9
sg9
I1
sg10
I3
sg11
I0
sg12
I0
sg13
I0
sg14
I0
ssg15
I187908869
ssI16
(dp1308
g6
(dp1309
g8
I9
sg9
I1
sg10
I3
sg11
I0
sg12
I0
sg13
I0
sg14
I0
ssg15
I306883892
sssI30
(dp1310
I64
(dp1311
g6
(dp1312
g8
I9
sg9
I1
sg10
I4
sg11
I0
sg12
I0
sg13
I0
sg14
I0
ssg15
I576206559
ssI32
(dp1313
g6
(dp1314
g8
I9
sg9
I1
sg10
I4
sg11
I0
sg12
I0
sg13
I0
sg14
I0
ssg15
I506344989
ssI2
(dp1315
g6
(dp1316
g8
I9
sg9
I1
sg10
I4
sg11
I0
sg12
I0
sg13
I0
sg14
I0
ssg15
I107387439
ssI4
(dp1317
g6
(dp1318
g8
I9
sg9
I1
sg10
I3
sg11
I0
sg12
I0
sg13
I0
sg14
I0
ssg15
I173267715
ssI8
(dp1319
g6
(dp1320
g8
I9
sg9
I1
sg10
I4
sg11
I0
sg12
I0
sg13
I0
sg14
I0
ssg15
I229413617
ssI16
(dp1321
g6
(dp1322
g8
I9
sg9
I1
sg10
I4
sg11
I0
sg12
I0
sg13
I0
sg14
I0
ssg15
I367129419
ssssI262144
(dp1323
I60
(dp1324
I64
(dp1325
g6
(dp1326
V11
p1327
I10
sV10
p1328
I21
sV13
p1329
I2
sV12
p1330
I5
sV15
p1331
I0
sV14
p1332
I1
sV17
p1333
I0
sV16
p1334
I0
sV18
p1335
I0
sg8
I18825
sg9
I3369
sg10
I8016
sg11
I684
sg12
I1441
sg13
I170
sg14
I341
sg52
I42
sg53
I85
ssg15
I371767169
ssI32
(dp1336
g6
(dp1337
V11
p1338
I10
sV10
p1339
I21
sV13
p1340
I2
sV12
p1341
I5
sV15
p1342
I0
sV14
p1343
I1
sV17
p1344
I0
sV16
p1345
I0
sV18
p1346
I0
sg8
I18805
sg9
I3366
sg10
I8001
sg11
I684
sg12
I1443
sg13
I170
sg14
I341
sg52
I42
sg53
I85
ssg15
I238644860
ssI2
(dp1347
g6
(dp1348
V11
p1349
I10
sV10
p1350
I21
sV13
p1351
I2
sV12
p1352
I5
sV15
p1353
I0
sV14
p1354
I1
sV17
p1355
I0
sV16
p1356
I0
sV18
p1357
I0
sg8
I18757
sg9
I3340
sg10
I7970
sg11
I684
sg12
I1438
sg13
I170
sg14
I341
sg52
I42
sg53
I85
ssg15
I22207793
ssI4
(dp1358
g6
(dp1359
V11
p1360
I10
sV10
p1361
I21
sV13
p1362
I2
sV12
p1363
I5
sV15
p1364
I0
sV14
p1365
I1
sV17
p1366
I0
sV16
p1367
I0
sV18
p1368
I0
sg8
I18777
sg9
I3352
sg10
I7969
sg11
I684
sg12
I1442
sg13
I170
sg14
I341
sg52
I42
sg53
I85
ssg15
I40942030
ssI8
(dp1369
g6
(dp1370
V11
p1371
I10
sV10
p1372
I21
sV13
p1373
I2
sV12
p1374
I5
sV15
p1375
I0
sV14
p1376
I1
sV17
p1377
I0
sV16
p1378
I0
sV18
p1379
I0
sg8
I18798
sg9
I3355
sg10
I7999
sg11
I685
sg12
I1442
sg13
I170
sg14
I341
sg52
I42
sg53
I85
ssg15
I72604753
ssI16
(dp1380
g6
(dp1381
V11
p1382
I10
sV10
p1383
I21
sV13
p1384
I2
sV12
p1385
I5
sV15
p1386
I0
sV14
p1387
I1
sV17
p1388
I0
sV16
p1389
I0
sV18
p1390
I0
sg8
I18795
sg9
I3351
sg10
I7995
sg11
I684
sg12
I1440
sg13
I170
sg14
I341
sg52
I42
sg53
I85
ssg15
I132633229
sssI30
(dp1391
I64
(dp1392
g6
(dp1393
V11
p1394
I10
sV10
p1395
I21
sV13
p1396
I2
sV12
p1397
I5
sV15
p1398
I0
sV14
p1399
I1
sV17
p1400
I0
sV16
p1401
I0
sV18
p1402
I0
sg8
I18838
sg9
I3374
sg10
I8017
sg11
I685
sg12
I1446
sg13
I170
sg14
I341
sg52
I42
sg53
I85
ssg15
I372203590
ssI32
(dp1403
g6
(dp1404
V11
p1405
I10
sV10
p1406
I21
sV13
p1407
I2
sV12
p1408
I5
sV15
p1409
I0
sV14
p1410
I1
sV17
p1411
I0
sV16
p1412
I0
sV18
p1413
I0
sg8
I18799
sg9
I3363
sg10
I8002
sg11
I684
sg12
I1444
sg13
I170
sg14
I341
sg52
I42
sg53
I85
ssg15
I251859969
ssI2
(dp1414
g6
(dp1415
V11
p1416
I10
sV10
p1417
I21
sV13
p1418
I2
sV12
p1419
I5
sV15
p1420
I0
sV14
p1421
I1
sV17
p1422
I0
sV16
p1423
I0
sV18
p1424
I0
sg8
I18710
sg9
I3327
sg10
I7942
sg11
I684
sg12
I1438
sg13
I170
sg14
I341
sg52
I42
sg53
I85
ssg15
I23054394
ssI4
(dp1425
g6
(dp1426
V11
p1427
I10
sV10
p1428
I21
sV13
p1429
I2
sV12
p1430
I5
sV15
p1431
I0
sV14
p1432
I1
sV17
p1433
I0
sV16
p1434
I0
sV18
p1435
I0
sg8
I18760
sg9
I3346
sg10
I7960
sg11
I685
sg12
I1437
sg13
I170
sg14
I341
sg52
I42
sg53
I85
ssg15
I43464675
ssI8
(dp1436
g6
(dp1437
V11
p1438
I10
sV10
p1439
I21
sV13
p1440
I2
sV12
p1441
I5
sV15
p1442
I0
sV14
p1443
I1
sV17
p1444
I0
sV16
p1445
I0
sV18
p1446
I0
sg8
I18764
sg9
I3345
sg10
I7977
sg11
I684
sg12
I1443
sg13
I170
sg14
I341
sg52
I42
sg53
I85
ssg15
I78318287
ssI16
(dp1447
g6
(dp1448
V11
p1449
I10
sV10
p1450
I21
sV13
p1451
I2
sV12
p1452
I5
sV15
p1453
I0
sV14
p1454
I1
sV17
p1455
I0
sV16
p1456
I0
sV18
p1457
I0
sg8
I18806
sg9
I3353
sg10
I7991
sg11
I684
sg12
I1442
sg13
I170
sg14
I341
sg52
I42
sg53
I85
ssg15
I140090790
sssssS'max-level-30'
p1458
(dp1459
I128
(dp1460
I60
(dp1461
I64
(dp1462
g6
(dp1463
g8
I9
sg9
I1
sg10
I3
sg11
I0
sg12
I0
sg13
I0
sg14
I0
ssg15
I471834574
ssI32
(dp1464
g6
(dp1465
g8
I9
sg9
I1
sg10
I3
sg11
I0
sg12
I0
sg13
I0
sg14
I0
ssg15
I407770144
ssI2
(dp1466
g6
(dp1467
g8
I9
sg9
I1
sg10
I3
sg11
I0
sg12
I0
sg13
I0
sg14
I0
ssg15
I90504866
ssI4
(dp1468
g6
(dp1469
g8
I9
sg9
I1
sg10
I4
sg11
I0
sg12
I0
sg13
I0
sg14
I0
ssg15
I138612848
ssI8
(dp1470
g6
(dp1471
g8
I8
sg9
I1
sg10
I3
sg11
I0
sg12
I0
sg13
I0
sg14
I0
ssg15
I185545472
ssI16
(dp1472
g6
(dp1473
g8
I9
sg9
I1
sg10
I3
sg11
I0
sg12
I0
sg13
I0
sg14
I0
ssg15
I298034063
sssI30
(dp1474
I64
(dp1475
g6
(dp1476
g8
I9
sg9
I1
sg10
I3
sg11
I0
sg12
I0
sg13
I0
sg14
I0
ssg15
I584254749
ssI32
(dp1477
g6
(dp1478
g8
I9
sg9
I1
sg10
I4
sg11
I0
sg12
I0
sg13
I0
sg14
I0
ssg15
I497346397
ssI2
(dp1479
g6
(dp1480
g8
I9
sg9
I1
sg10
I3
sg11
I0
sg12
I0
sg13
I0
sg14
I0
ssg15
I106364999
ssI4
(dp1481
g6
(dp1482
g8
I9
sg9
I1
sg10
I3
sg11
I0
sg12
I0
sg13
I0
sg14
I0
ssg15
I170423833
ssI8
(dp1483
g6
(dp1484
g8
I9
sg9
I1
sg10
I3
sg11
I0
sg12
I0
sg13
I0
sg14
I0
ssg15
I226501487
ssI16
(dp1485
g6
(dp1486
g8
I9
sg9
I1
sg10
I4
sg11
I0
sg12
I0
sg13
I0
sg14
I0
ssg15
I366136732
ssssI262144
(dp1487
I60
(dp1488
I64
(dp1489
g6
(dp1490
V11
p1491
I10
sV10
p1492
I21
sV13
p1493
I2
sV12
p1494
I5
sV15
p1495
I0
sV14
p1496
I1
sV17
p1497
I0
sV16
p1498
I0
sV18
p1499
I0
sg8
I18838
sg9
I3368
sg10
I8017
sg11
I685
sg12
I1446
sg13
I170
sg14
I341
sg52
I42
sg53
I85
ssg15
I347622359
ssI32
(dp1500
g6
(dp1501
V11
p1502
I10
sV10
p1503
I21
sV13
p1504
I2
sV12
p1505
I5
sV15
p1506
I0
sV14
p1507
I1
sV17
p1508
I0
sV16
p1509
I0
sV18
p1510
I0
sg8
I18831
sg9
I3374
sg10
I8015
sg11
I685
sg12
I1447
sg13
I170
sg14
I341
sg52
I42
sg53
I85
ssg15
I233011805
ssI2
(dp1511
g6
(dp1512
V11
p1513
I10
sV10
p1514
I21
sV13
p1515
I2
sV12
p1516
I5
sV15
p1517
I0
sV14
p1518
I1
sV17
p1519
I0
sV16
p1520
I0
sV18
p1521
I0
sg8
I18753
sg9
I3337
sg10
I7949
sg11
I684
sg12
I1440
sg13
I170
sg14
I341
sg52
I42
sg53
I85
ssg15
I21033918
ssI4
(dp1522
g6
(dp1523
V11
p1524
I10
sV10
p1525
I21
sV13
p1526
I2
sV12
p1527
I5
sV15
p1528
I0
sV14
p1529
I1
sV17
p1530
I0
sV16
p1531
I0
sV18
p1532
I0
sg8
I18781
sg9
I3351
sg10
I7972
sg11
I684
sg12
I1439
sg13
I170
sg14
I341
sg52
I42
sg53
I85
ssg15
I39153170
ssI8
(dp1533
g6
(dp1534
V11
p1535
I10
sV10
p1536
I21
sV13
p1537
I2
sV12
p1538
I5
sV15
p1539
I0
sV14
p1540
I1
sV17
p1541
I0
sV16
p1542
I0
sV18
p1543
I0
sg8
I18797
sg9
I3360
sg10
I7989
sg11
I684
sg12
I1439
sg13
I170
sg14
I341
sg52
I42
sg53
I85
ssg15
I70263872
ssI16
(dp1544
g6
(dp1545
V11
p1546
I10
sV10
p1547
I21
sV13
p1548
I2
sV12
p1549
I5
sV15
p1550
I0
sV14
p1551
I1
sV17
p1552
I0
sV16
p1553
I0
sV18
p1554
I0
sg8
I18816
sg9
I3367
sg10
I8007
sg11
I685
sg12
I1444
sg13
I170
sg14
I341
sg52
I42
sg53
I85
ssg15
I129140060
sssI30
(dp1555
I64
(dp1556
g6
(dp1557
V11
p1558
I10
sV10
p1559
I21
sV13
p1560
I2
sV12
p1561
I5
sV15
p1562
I0
sV14
p1563
I1
sV17
p1564
I0
sV16
p1565
I0
sV18
p1566
I0
sg8
I18852
sg9
I3372
sg10
I8021
sg11
I685
sg12
I1446
sg13
I170
sg14
I341
sg52
I42
sg53
I85
ssg15
I368263697
ssI32
(dp1567
g6
(dp1568
V11
p1569
I10
sV10
p1570
I21
sV13
p1571
I2
sV12
p1572
I5
sV15
p1573
I0
sV14
p1574
I1
sV17
p1575
I0
sV16
p1576
I0
sV18
p1577
I0
sg8
I18821
sg9
I3375
sg10
I8015
sg11
I684
sg12
I1447
sg13
I170
sg14
I341
sg52
I42
sg53
I85
ssg15
I242868709
ssI2
(dp1578
g6
(dp1579
V11
p1580
I10
sV10
p1581
I21
sV13
p1582
I2
sV12
p1583
I5
sV15
p1584
I0
sV14
p1585
I1
sV17
p1586
I0
sV16
p1587
I0
sV18
p1588
I0
sg8
I18732
sg9
I3327
sg10
I7931
sg11
I684
sg12
I1438
sg13
I170
sg14
I341
sg52
I42
sg53
I85
ssg15
I22553448
ssI4
(dp1589
g6
(dp1590
V11
p1591
I10
sV10
p1592
I21
sV13
p1593
I2
sV12
p1594
I5
sV15
p1595
I0
sV14
p1596
I1
sV17
p1597
I0
sV16
p1598
I0
sV18
p1599
I0
sg8
I18749
sg9
I3340
sg10
I7949
sg11
I685
sg12
I1435
sg13
I170
sg14
I341
sg52
I42
sg53
I85
ssg15
I41415719
ssI8
(dp1600
g6
(dp1601
V11
p1602
I10
sV10
p1603
I21
sV13
p1604
I2
sV12
p1605
I5
sV15
p1606
I0
sV14
p1607
I1
sV17
p1608
I0
sV16
p1609
I0
sV18
p1610
I0
sg8
I18781
sg9
I3351
sg10
I7978
sg11
I685
sg12
I1442
sg13
I170
sg14
I341
sg52
I42
sg53
I85
ssg15
I74996237
ssI16
(dp1611
g6
(dp1612
V11
p1613
I10
sV10
p1614
I21
sV13
p1615
I2
sV12
p1616
I5
sV15
p1617
I0
sV14
p1618
I1
sV17
p1619
I0
sV16
p1620
I0
sV18
p1621
I0
sg8
I18821
sg9
I3360
sg10
I8004
sg11
I684
sg12
I1444
sg13
I170
sg14
I341
sg52
I42
sg53
I85
ssg15
I135140010
sssssS'level-delete-original-5'
p1622
(dp1623
I128
(dp1624
I60
(dp1625
I64
(dp1626
g6
(dp1627
g8
I9
sg9
I1
sg10
I4
sg11
I0
sg12
I0
sg13
I0
sg14
I0
ssg15
I468237241
ssI32
(dp1628
g6
(dp1629
g8
I9
sg9
I1
sg10
I4
sg11
I0
sg12
I0
sg13
I0
sg14
I0
ssg15
I399097024
ssI2
(dp1630
g6
(dp1631
g8
I9
sg9
I1
sg10
I4
sg11
I0
sg12
I0
sg13
I0
sg14
I0
ssg15
I77766989
ssI4
(dp1632
g6
(dp1633
g8
I9
sg9
I1
sg10
I4
sg11
I0
sg12
I0
sg13
I0
sg14
I0
ssg15
I115617945
ssI8
(dp1634
g6
(dp1635
g8
I9
sg9
I1
sg10
I4
sg11
I0
sg12
I0
sg13
I0
sg14
I0
ssg15
I189328438
ssI16
(dp1636
g6
(dp1637
g8
I9
sg9
I1
sg10
I4
sg11
I0
sg12
I0
sg13
I0
sg14
I0
ssg15
I305094945
sssI30
(dp1638
I64
(dp1639
g6
(dp1640
g8
I9
sg9
I1
sg10
I4
sg11
I0
sg12
I0
sg13
I0
sg14
I0
ssg15
I576023579
ssI32
(dp1641
g6
(dp1642
g8
I9
sg9
I1
sg10
I4
sg11
I0
sg12
I0
sg13
I0
sg14
I0
ssg15
I498128593
ssI2
(dp1643
g6
(dp1644
g8
I9
sg9
I1
sg10
I3
sg11
I0
sg12
I0
sg13
I0
sg14
I0
ssg15
I108097748
ssI4
(dp1645
g6
(dp1646
g8
I9
sg9
I1
sg10
I4
sg11
I0
sg12
I0
sg13
I0
sg14
I0
ssg15
I172983119
ssI8
(dp1647
g6
(dp1648
g8
I9
sg9
I1
sg10
I3
sg11
I0
sg12
I0
sg13
I0
sg14
I0
ssg15
I231062071
ssI16
(dp1649
g6
(dp1650
g8
I9
sg9
I1
sg10
I3
sg11
I0
sg12
I0
sg13
I0
sg14
I0
ssg15
I366905089
ssssI262144
(dp1651
I60
(dp1652
I64
(dp1653
g6
(dp1654
V11
p1655
I10
sV10
p1656
I21
sV13
p1657
I2
sV12
p1658
I5
sV15
p1659
I0
sV14
p1660
I1
sV17
p1661
I0
sV16
p1662
I0
sV18
p1663
I0
sg8
I18830
sg9
I3371
sg10
I8024
sg11
I685
sg12
I1448
sg13
I170
sg14
I341
sg52
I42
sg53
I85
ssg15
I332975730
ssI32
(dp1664
g6
(dp1665
V11
p1666
I10
sV10
p1667
I21
sV13
p1668
I2
sV12
p1669
I5
sV15
p1670
I0
sV14
p1671
I1
sV17
p1672
I0
sV16
p1673
I0
sV18
p1674
I0
sg8
I18839
sg9
I3365
sg10
I8029
sg11
I685
sg12
I1444
sg13
I170
sg14
I341
sg52
I42
sg53
I85
ssg15
I234641738
ssI2
(dp1675
g6
(dp1676
V11
p1677
I10
sV10
p1678
I21
sV13
p1679
I2
sV12
p1680
I5
sV15
p1681
I0
sV14
p1682
I1
sV17
p1683
I0
sV16
p1684
I0
sV18
p1685
I0
sg8
I18773
sg9
I3343
sg10
I7970
sg11
I684
sg12
I1436
sg13
I170
sg14
I341
sg52
I42
sg53
I85
ssg15
I21920805
ssI4
(dp1686
g6
(dp1687
V11
p1688
I10
sV10
p1689
I21
sV13
p1690
I2
sV12
p1691
I5
sV15
p1692
I0
sV14
p1693
I1
sV17
p1694
I0
sV16
p1695
I0
sV18
p1696
I0
sg8
I18766
sg9
I3343
sg10
I7967
sg11
I684
sg12
I1438
sg13
I170
sg14
I341
sg52
I42
sg53
I85
ssg15
I41052331
ssI8
(dp1697
g6
(dp1698
V11
p1699
I10
sV10
p1700
I21
sV13
p1701
I2
sV12
p1702
I5
sV15
p1703
I0
sV14
p1704
I1
sV17
p1705
I0
sV16
p1706
I0
sV18
p1707
I0
sg8
I18784
sg9
I3350
sg10
I7979
sg11
I685
sg12
I1439
sg13
I170
sg14
I341
sg52
I42
sg53
I85
ssg15
I72365062
ssI16
(dp1708
g6
(dp1709
V11
p1710
I10
sV10
p1711
I21
sV13
p1712
I2
sV12
p1713
I5
sV15
p1714
I0
sV14
p1715
I1
sV17
p1716
I0
sV16
p1717
I0
sV18
p1718
I0
sg8
I18822
sg9
I3361
sg10
I8002
sg11
I685
sg12
I1446
sg13
I170
sg14
I341
sg52
I42
sg53
I85
ssg15
I132729191
sssI30
(dp1719
I64
(dp1720
g6
(dp1721
V11
p1722
I10
sV10
p1723
I21
sV13
p1724
I2
sV12
p1725
I5
sV15
p1726
I0
sV14
p1727
I1
sV17
p1728
I0
sV16
p1729
I0
sV18
p1730
I0
sg8
I18832
sg9
I3378
sg10
I8020
sg11
I684
sg12
I1446
sg13
I170
sg14
I341
sg52
I42
sg53
I85
ssg15
I374724916
ssI32
(dp1731
g6
(dp1732
V11
p1733
I10
sV10
p1734
I21
sV13
p1735
I2
sV12
p1736
I5
sV15
p1737
I0
sV14
p1738
I1
sV17
p1739
I0
sV16
p1740
I0
sV18
p1741
I0
sg8
I18823
sg9
I3366
sg10
I8006
sg11
I684
sg12
I1441
sg13
I170
sg14
I341
sg52
I42
sg53
I85
ssg15
I247722236
ssI2
(dp1742
g6
(dp1743
V11
p1744
I10
sV10
p1745
I21
sV13
p1746
I2
sV12
p1747
I5
sV15
p1748
I0
sV14
p1749
I1
sV17
p1750
I0
sV16
p1751
I0
sV18
p1752
I0
sg8
I18731
sg9
I3322
sg10
I7933
sg11
I684
sg12
I1432
sg13
I170
sg14
I341
sg52
I42
sg53
I85
ssg15
I23655578
ssI4
(dp1753
g6
(dp1754
V11
p1755
I10
sV10
p1756
I21
sV13
p1757
I2
sV12
p1758
I5
sV15
p1759
I0
sV14
p1760
I1
sV17
p1761
I0
sV16
p1762
I0
sV18
p1763
I0
sg8
I18762
sg9
I3340
sg10
I7964
sg11
I684
sg12
I1438
sg13
I170
sg14
I341
sg52
I42
sg53
I85
ssg15
I43848362
ssI8
(dp1764
g6
(dp1765
V11
p1766
I10
sV10
p1767
I21
sV13
p1768
I2
sV12
p1769
I5
sV15
p1770
I0
sV14
p1771
I1
sV17
p1772
I0
sV16
p1773
I0
sV18
p1774
I0
sg8
I18783
sg9
I3344
sg10
I7974
sg11
I684
sg12
I1438
sg13
I170
sg14
I341
sg52
I42
sg53
I85
ssg15
I76838579
ssI16
(dp1775
g6
(dp1776
V11
p1777
I10
sV10
p1778
I21
sV13
p1779
I2
sV12
p1780
I5
sV15
p1781
I0
sV14
p1782
I1
sV17
p1783
I0
sV16
p1784
I0
sV18
p1785
I0
sg8
I18799
sg9
I3356
sg10
I7997
sg11
I684
sg12
I1441
sg13
I170
sg14
I341
sg52
I42
sg53
I85
ssg15
I139238843
sssssS'background_sleep_depends_threads'
p1786
(dp1787
I128
(dp1788
I60
(dp1789
I64
(dp1790
g6
(dp1791
g8
I9
sg9
I1
sg10
I3
sg11
I0
sg12
I0
sg13
I0
sg14
I0
ssg15
I469115513
ssI32
(dp1792
g6
(dp1793
g8
I9
sg9
I1
sg10
I4
sg11
I0
sg12
I0
sg13
I0
sg14
I0
ssg15
I407376834
ssI2
(dp1794
g6
(dp1795
g8
I9
sg9
I1
sg10
I4
sg11
I0
sg12
I0
sg13
I0
sg14
I0
ssg15
I90023645
ssI4
(dp1796
g6
(dp1797
g8
I9
sg9
I1
sg10
I3
sg11
I0
sg12
I0
sg13
I0
sg14
I0
ssg15
I139981855
ssI8
(dp1798
g6
(dp1799
g8
I9
sg9
I1
sg10
I3
sg11
I0
sg12
I0
sg13
I0
sg14
I0
ssg15
I194854014
ssI16
(dp1800
g6
(dp1801
g8
I9
sg9
I1
sg10
I4
sg11
I0
sg12
I0
sg13
I0
sg14
I0
ssg15
I302087583
sssI30
(dp1802
I64
(dp1803
g6
(dp1804
g8
I9
sg9
I1
sg10
I3
sg11
I0
sg12
I0
sg13
I0
sg14
I0
ssg15
I579932647
ssI32
(dp1805
g6
(dp1806
g8
I9
sg9
I1
sg10
I4
sg11
I0
sg12
I0
sg13
I0
sg14
I0
ssg15
I501068763
ssI2
(dp1807
g6
(dp1808
g8
I9
sg9
I1
sg10
I4
sg11
I0
sg12
I0
sg13
I0
sg14
I0
ssg15
I97214753
ssI4
(dp1809
g6
(dp1810
g8
I9
sg9
I1
sg10
I3
sg11
I0
sg12
I0
sg13
I0
sg14
I0
ssg15
I135509177
ssI8
(dp1811
g6
(dp1812
g8
I9
sg9
I1
sg10
I3
sg11
I0
sg12
I0
sg13
I0
sg14
I0
ssg15
I230757963
ssI16
(dp1813
g6
(dp1814
g8
I9
sg9
I1
sg10
I3
sg11
I0
sg12
I0
sg13
I0
sg14
I0
ssg15
I363509522
ssssI262144
(dp1815
I60
(dp1816
I64
(dp1817
g6
(dp1818
V11
p1819
I10
sV10
p1820
I21
sV13
p1821
I2
sV12
p1822
I5
sV15
p1823
I0
sV14
p1824
I1
sV17
p1825
I0
sV16
p1826
I0
sV18
p1827
I0
sg8
I18846
sg9
I3376
sg10
I8026
sg11
I685
sg12
I1445
sg13
I170
sg14
I341
sg52
I42
sg53
I85
ssg15
I370933560
ssI32
(dp1828
g6
(dp1829
V11
p1830
I10
sV10
p1831
I21
sV13
p1832
I2
sV12
p1833
I5
sV15
p1834
I0
sV14
p1835
I1
sV17
p1836
I0
sV16
p1837
I0
sV18
p1838
I0
sg8
I18846
sg9
I3373
sg10
I8027
sg11
I685
sg12
I1446
sg13
I170
sg14
I341
sg52
I42
sg53
I85
ssg15
I241701679
ssI2
(dp1839
g6
(dp1840
V11
p1841
I10
sV10
p1842
I21
sV13
p1843
I2
sV12
p1844
I5
sV15
p1845
I0
sV14
p1846
I1
sV17
p1847
I0
sV16
p1848
I0
sV18
p1849
I0
sg8
I18783
sg9
I3352
sg10
I7982
sg11
I684
sg12
I1441
sg13
I170
sg14
I341
sg52
I42
sg53
I85
ssg15
I22495585
ssI4
(dp1850
g6
(dp1851
V11
p1852
I10
sV10
p1853
I21
sV13
p1854
I2
sV12
p1855
I5
sV15
p1856
I0
sV14
p1857
I1
sV17
p1858
I0
sV16
p1859
I0
sV18
p1860
I0
sg8
I18803
sg9
I3358
sg10
I7995
sg11
I684
sg12
I1445
sg13
I170
sg14
I341
sg52
I42
sg53
I85
ssg15
I41291570
ssI8
(dp1861
g6
(dp1862
V11
p1863
I10
sV10
p1864
I21
sV13
p1865
I2
sV12
p1866
I5
sV15
p1867
I0
sV14
p1868
I1
sV17
p1869
I0
sV16
p1870
I0
sV18
p1871
I0
sg8
I18837
sg9
I3364
sg10
I8011
sg11
I685
sg12
I1445
sg13
I170
sg14
I341
sg52
I42
sg53
I85
ssg15
I73720303
ssI16
(dp1872
g6
(dp1873
V11
p1874
I10
sV10
p1875
I21
sV13
p1876
I2
sV12
p1877
I5
sV15
p1878
I0
sV14
p1879
I1
sV17
p1880
I0
sV16
p1881
I0
sV18
p1882
I0
sg8
I18847
sg9
I3371
sg10
I8022
sg11
I684
sg12
I1441
sg13
I170
sg14
I341
sg52
I42
sg53
I85
ssg15
I133197832
sssI30
(dp1883
I64
(dp1884
g6
(dp1885
V11
p1886
I10
sV10
p1887
I21
sV13
p1888
I2
sV12
p1889
I5
sV15
p1890
I0
sV14
p1891
I1
sV17
p1892
I0
sV16
p1893
I0
sV18
p1894
I0
sg8
I18851
sg9
I3376
sg10
I8029
sg11
I685
sg12
I1441
sg13
I170
sg14
I341
sg52
I42
sg53
I85
ssg15
I205410641
ssI32
(dp1895
g6
(dp1896
V11
p1897
I10
sV10
p1898
I21
sV13
p1899
I2
sV12
p1900
I5
sV15
p1901
I0
sV14
p1902
I1
sV17
p1903
I0
sV16
p1904
I0
sV18
p1905
I0
sg8
I18836
sg9
I3370
sg10
I8015
sg11
I684
sg12
I1446
sg13
I170
sg14
I341
sg52
I42
sg53
I85
ssg15
I164651024
ssI2
(dp1906
g6
(dp1907
V11
p1908
I10
sV10
p1909
I21
sV13
p1910
I2
sV12
p1911
I5
sV15
p1912
I0
sV14
p1913
I1
sV17
p1914
I0
sV16
p1915
I0
sV18
p1916
I0
sg8
I18714
sg9
I3321
sg10
I7932
sg11
I684
sg12
I1428
sg13
I170
sg14
I341
sg52
I42
sg53
I85
ssg15
I23315997
ssI4
(dp1917
g6
(dp1918
V11
p1919
I10
sV10
p1920
I21
sV13
p1921
I2
sV12
p1922
I5
sV15
p1923
I0
sV14
p1924
I1
sV17
p1925
I0
sV16
p1926
I0
sV18
p1927
I0
sg8
I18784
sg9
I3351
sg10
I7981
sg11
I684
sg12
I1442
sg13
I170
sg14
I341
sg52
I42
sg53
I85
ssg15
I42089166
ssI8
(dp1928
g6
(dp1929
V11
p1930
I10
sV10
p1931
I21
sV13
p1932
I2
sV12
p1933
I5
sV15
p1934
I0
sV14
p1935
I1
sV17
p1936
I0
sV16
p1937
I0
sV18
p1938
I0
sg8
I18791
sg9
I3358
sg10
I7984
sg11
I684
sg12
I1438
sg13
I170
sg14
I341
sg52
I42
sg53
I85
ssg15
I73865049
ssI16
(dp1939
g6
(dp1940
V11
p1941
I10
sV10
p1942
I21
sV13
p1943
I2
sV12
p1944
I5
sV15
p1945
I0
sV14
p1946
I1
sV17
p1947
I0
sV16
p1948
I0
sV18
p1949
I0
sg8
I18818
sg9
I3359
sg10
I7999
sg11
I684
sg12
I1443
sg13
I170
sg14
I341
sg52
I42
sg53
I85
ssg15
I132404387
sssssS'level-delete-original-1'
p1950
(dp1951
I128
(dp1952
I60
(dp1953
I64
(dp1954
g6
(dp1955
g8
I9
sg9
I1
sg10
I4
sg11
I0
sg12
I0
sg13
I0
sg14
I0
ssg15
I471742967
ssI32
(dp1956
g6
(dp1957
g8
I9
sg9
I1
sg10
I4
sg11
I0
sg12
I0
sg13
I0
sg14
I0
ssg15
I407646557
ssI2
(dp1958
g6
(dp1959
g8
I9
sg9
I1
sg10
I4
sg11
I0
sg12
I0
sg13
I0
sg14
I0
ssg15
I93107119
ssI4
(dp1960
g6
(dp1961
g8
I9
sg9
I1
sg10
I4
sg11
I0
sg12
I0
sg13
I0
sg14
I0
ssg15
I140273999
ssI8
(dp1962
g6
(dp1963
g8
I9
sg9
I1
sg10
I4
sg11
I0
sg12
I0
sg13
I0
sg14
I0
ssg15
I187523557
ssI16
(dp1964
g6
(dp1965
g8
I9
sg9
I1
sg10
I4
sg11
I0
sg12
I0
sg13
I0
sg14
I0
ssg15
I298258500
sssI30
(dp1966
I64
(dp1967
g6
(dp1968
g8
I9
sg9
I1
sg10
I4
sg11
I0
sg12
I0
sg13
I0
sg14
I0
ssg15
I580220688
ssI32
(dp1969
g6
(dp1970
g8
I9
sg9
I1
sg10
I4
sg11
I0
sg12
I0
sg13
I0
sg14
I0
ssg15
I501907222
ssI2
(dp1971
g6
(dp1972
g8
I9
sg9
I1
sg10
I4
sg11
I0
sg12
I0
sg13
I0
sg14
I0
ssg15
I108102294
ssI4
(dp1973
g6
(dp1974
g8
I9
sg9
I1
sg10
I3
sg11
I0
sg12
I0
sg13
I0
sg14
I0
ssg15
I171531576
ssI8
(dp1975
g6
(dp1976
g8
I9
sg9
I1
sg10
I3
sg11
I0
sg12
I0
sg13
I0
sg14
I0
ssg15
I230805887
ssI16
(dp1977
g6
(dp1978
g8
I9
sg9
I1
sg10
I3
sg11
I0
sg12
I0
sg13
I0
sg14
I0
ssg15
I367562750
ssssI262144
(dp1979
I60
(dp1980
I64
(dp1981
g6
(dp1982
V11
p1983
I10
sV10
p1984
I21
sV13
p1985
I2
sV12
p1986
I5
sV15
p1987
I0
sV14
p1988
I1
sV17
p1989
I0
sV16
p1990
I0
sV18
p1991
I0
sg8
I18825
sg9
I3363
sg10
I8009
sg11
I684
sg12
I1442
sg13
I170
sg14
I341
sg52
I42
sg53
I85
ssg15
I369329732
ssI32
(dp1992
g6
(dp1993
V11
p1994
I10
sV10
p1995
I21
sV13
p1996
I2
sV12
p1997
I5
sV15
p1998
I0
sV14
p1999
I1
sV17
p2000
I0
sV16
p2001
I0
sV18
p2002
I0
sg8
I18836
sg9
I3372
sg10
I8018
sg11
I684
sg12
I1447
sg13
I170
sg14
I341
sg52
I42
sg53
I85
ssg15
I242333960
ssI2
(dp2003
g6
(dp2004
V11
p2005
I10
sV10
p2006
I21
sV13
p2007
I2
sV12
p2008
I5
sV15
p2009
I0
sV14
p2010
I1
sV17
p2011
I0
sV16
p2012
I0
sV18
p2013
I0
sg8
I18752
sg9
I3344
sg10
I7958
sg11
I684
sg12
I1437
sg13
I170
sg14
I341
sg52
I42
sg53
I85
ssg15
I21698967
ssI4
(dp2014
g6
(dp2015
V11
p2016
I10
sV10
p2017
I21
sV13
p2018
I2
sV12
p2019
I5
sV15
p2020
I0
sV14
p2021
I1
sV17
p2022
I0
sV16
p2023
I0
sV18
p2024
I0
sg8
I18790
sg9
I3353
sg10
I7980
sg11
I684
sg12
I1441
sg13
I170
sg14
I341
sg52
I42
sg53
I85
ssg15
I40907438
ssI8
(dp2025
g6
(dp2026
V11
p2027
I10
sV10
p2028
I21
sV13
p2029
I2
sV12
p2030
I5
sV15
p2031
I0
sV14
p2032
I1
sV17
p2033
I0
sV16
p2034
I0
sV18
p2035
I0
sg8
I18791
sg9
I3354
sg10
I7984
sg11
I684
sg12
I1444
sg13
I170
sg14
I341
sg52
I42
sg53
I85
ssg15
I73302971
ssI16
(dp2036
g6
(dp2037
V11
p2038
I10
sV10
p2039
I21
sV13
p2040
I2
sV12
p2041
I5
sV15
p2042
I0
sV14
p2043
I1
sV17
p2044
I0
sV16
p2045
I0
sV18
p2046
I0
sg8
I18806
sg9
I3362
sg10
I7998
sg11
I684
sg12
I1442
sg13
I170
sg14
I341
sg52
I42
sg53
I85
ssg15
I134317001
sssI30
(dp2047
I64
(dp2048
g6
(dp2049
V11
p2050
I10
sV10
p2051
I21
sV13
p2052
I2
sV12
p2053
I5
sV15
p2054
I0
sV14
p2055
I1
sV17
p2056
I0
sV16
p2057
I0
sV18
p2058
I0
sg8
I18827
sg9
I3367
sg10
I8011
sg11
I685
sg12
I1447
sg13
I170
sg14
I341
sg52
I42
sg53
I85
ssg15
I372935666
ssI32
(dp2059
g6
(dp2060
V11
p2061
I10
sV10
p2062
I21
sV13
p2063
I2
sV12
p2064
I5
sV15
p2065
I0
sV14
p2066
I1
sV17
p2067
I0
sV16
p2068
I0
sV18
p2069
I0
sg8
I18841
sg9
I3371
sg10
I8026
sg11
I685
sg12
I1447
sg13
I170
sg14
I341
sg52
I42
sg53
I85
ssg15
I250322648
ssI2
(dp2070
g6
(dp2071
V11
p2072
I10
sV10
p2073
I21
sV13
p2074
I2
sV12
p2075
I5
sV15
p2076
I0
sV14
p2077
I1
sV17
p2078
I0
sV16
p2079
I0
sV18
p2080
I0
sg8
I18716
sg9
I3331
sg10
I7938
sg11
I684
sg12
I1432
sg13
I170
sg14
I341
sg52
I42
sg53
I85
ssg15
I23172662
ssI4
(dp2081
g6
(dp2082
V11
p2083
I10
sV10
p2084
I21
sV13
p2085
I2
sV12
p2086
I5
sV15
p2087
I0
sV14
p2088
I1
sV17
p2089
I0
sV16
p2090
I0
sV18
p2091
I0
sg8
I18773
sg9
I3343
sg10
I7963
sg11
I685
sg12
I1438
sg13
I170
sg14
I341
sg52
I42
sg53
I85
ssg15
I43334285
ssI8
(dp2092
g6
(dp2093
V11
p2094
I10
sV10
p2095
I21
sV13
p2096
I2
sV12
p2097
I5
sV15
p2098
I0
sV14
p2099
I1
sV17
p2100
I0
sV16
p2101
I0
sV18
p2102
I0
sg8
I18773
sg9
I3351
sg10
I7983
sg11
I684
sg12
I1443
sg13
I170
sg14
I341
sg52
I42
sg53
I85
ssg15
I77843963
ssI16
(dp2103
g6
(dp2104
V11
p2105
I10
sV10
p2106
I21
sV13
p2107
I2
sV12
p2108
I5
sV15
p2109
I0
sV14
p2110
I1
sV17
p2111
I0
sV16
p2112
I0
sV18
p2113
I0
sg8
I18811
sg9
I3358
sg10
I7999
sg11
I684
sg12
I1442
sg13
I170
sg14
I341
sg52
I42
sg53
I85
ssg15
I140961840
sssss.