(dp0
S'max-level-40'
p1
(dp2
I524288
(dp3
I50
(dp4
I64
(dp5
S'nodes'
p6
(dp7
V11
p8
I25
sV10
p9
I51
sV13
p10
I6
sV12
p11
I12
sV15
p12
I1
sV14
p13
I3
sV17
p14
I0
sV16
p15
I0
sV19
p16
I0
sV18
p17
I0
sV1
p18
I45067
sV3
p19
I7874
sV2
p20
I19028
sV5
p21
I1639
sV4
p22
I3395
sV7
p23
I409
sV6
p24
I819
sV9
p25
I102
sV8
p26
I204
ssS'txs'
p27
I181660210
ssI32
(dp28
g6
(dp29
V11
p30
I25
sV10
p31
I51
sV13
p32
I6
sV12
p33
I12
sV15
p34
I1
sV14
p35
I3
sV17
p36
I0
sV16
p37
I0
sV19
p38
I0
sV18
p39
I0
sg18
I45207
sg19
I8063
sg20
I19225
sg21
I1644
sg22
I3460
sg23
I409
sg24
I819
sg25
I102
sg26
I204
ssg27
I141059006
ssI2
(dp40
g6
(dp41
V11
p42
I25
sV10
p43
I51
sV13
p44
I6
sV12
p45
I12
sV15
p46
I1
sV14
p47
I3
sV17
p48
I0
sV16
p49
I0
sV19
p50
I0
sV18
p51
I0
sg18
I43700
sg19
I7649
sg20
I18359
sg21
I1639
sg22
I3361
sg23
I409
sg24
I819
sg25
I102
sg26
I204
ssg27
I14208947
ssI4
(dp52
g6
(dp53
V11
p54
I25
sV10
p55
I51
sV13
p56
I6
sV12
p57
I12
sV15
p58
I1
sV14
p59
I3
sV17
p60
I0
sV16
p61
I0
sV19
p62
I0
sV18
p63
I0
sg18
I44923
sg19
I7981
sg20
I19070
sg21
I1642
sg22
I3438
sg23
I409
sg24
I819
sg25
I102
sg26
I204
ssg27
I25199030
ssI8
(dp64
g6
(dp65
V11
p66
I25
sV10
p67
I51
sV13
p68
I6
sV12
p69
I12
sV15
p70
I1
sV14
p71
I3
sV17
p72
I0
sV16
p73
I0
sV19
p74
I0
sV18
p75
I0
sg18
I45091
sg19
I8030
sg20
I19148
sg21
I1643
sg22
I3450
sg23
I409
sg24
I819
sg25
I102
sg26
I204
ssg27
I46829450
ssI16
(dp76
g6
(dp77
V11
p78
I25
sV10
p79
I51
sV13
p80
I6
sV12
p81
I12
sV15
p82
I1
sV14
p83
I3
sV17
p84
I0
sV16
p85
I0
sV19
p86
I0
sV18
p87
I0
sg18
I45184
sg19
I8066
sg20
I19227
sg21
I1644
sg22
I3462
sg23
I409
sg24
I819
sg25
I102
sg26
I204
ssg27
I83152569
sssI20
(dp88
I64
(dp89
g6
(dp90
V11
p91
I25
sV10
p92
I51
sV13
p93
I6
sV12
p94
I12
sV15
p95
I1
sV14
p96
I3
sV17
p97
I0
sV16
p98
I0
sV19
p99
I0
sV18
p100
I0
sg18
I45133
sg19
I7980
sg20
I19154
sg21
I1641
sg22
I3429
sg23
I409
sg24
I819
sg25
I102
sg26
I204
ssg27
I191718844
ssI32
(dp101
g6
(dp102
V11
p103
I25
sV10
p104
I51
sV13
p105
I6
sV12
p106
I12
sV15
p107
I1
sV14
p108
I3
sV17
p109
I0
sV16
p110
I0
sV19
p111
I0
sV18
p112
I0
sg18
I45160
sg19
I8060
sg20
I19203
sg21
I1643
sg22
I3455
sg23
I409
sg24
I819
sg25
I102
sg26
I204
ssg27
I153122965
ssI2
(dp113
g6
(dp114
V11
p115
I25
sV10
p116
I51
sV13
p117
I6
sV12
p118
I12
sV15
p119
I1
sV14
p120
I3
sV17
p121
I0
sV16
p122
I0
sV19
p123
I0
sV18
p124
I0
sg18
I41011
sg19
I7155
sg20
I17080
sg21
I1638
sg22
I3298
sg23
I409
sg24
I819
sg25
I102
sg26
I204
ssg27
I15742823
ssI4
(dp125
g6
(dp126
V11
p127
I25
sV10
p128
I51
sV13
p129
I6
sV12
p130
I12
sV15
p131
I1
sV14
p132
I3
sV17
p133
I0
sV16
p134
I0
sV19
p135
I0
sV18
p136
I0
sg18
I43539
sg19
I7609
sg20
I18294
sg21
I1639
sg22
I3351
sg23
I409
sg24
I819
sg25
I102
sg26
I204
ssg27
I28855402
ssI8
(dp137
g6
(dp138
V11
p139
I25
sV10
p140
I51
sV13
p141
I6
sV12
p142
I12
sV15
p143
I1
sV14
p144
I3
sV17
p145
I0
sV16
p146
I0
sV19
p147
I0
sV18
p148
I0
sg18
I44773
sg19
I7911
sg20
I18934
sg21
I1641
sg22
I3416
sg23
I409
sg24
I819
sg25
I102
sg26
I204
ssg27
I51636921
ssI16
(dp149
g6
(dp150
V11
p151
I25
sV10
p152
I51
sV13
p153
I6
sV12
p154
I12
sV15
p155
I1
sV14
p156
I3
sV17
p157
I0
sV16
p158
I0
sV19
p159
I0
sV18
p160
I0
sg18
I45059
sg19
I8027
sg20
I19123
sg21
I1642
sg22
I3452
sg23
I409
sg24
I819
sg25
I102
sg26
I204
ssg27
I91297634
sssssS'level-delete-by-ratio-7_8'
p161
(dp162
I524288
(dp163
I50
(dp164
I64
(dp165
g6
(dp166
V11
p167
I25
sV10
p168
I51
sV13
p169
I6
sV12
p170
I12
sV15
p171
I1
sV14
p172
I3
sV17
p173
I0
sV16
p174
I0
sV19
p175
I0
sV18
p176
I0
sg18
I45199
sg19
I8052
sg20
I19214
sg21
I1641
sg22
I3453
sg23
I409
sg24
I819
sg25
I102
sg26
I204
ssg27
I194574792
ssI32
(dp177
g6
(dp178
V11
p179
I25
sV10
p180
I51
sV13
p181
I6
sV12
p182
I12
sV15
p183
I1
sV14
p184
I3
sV17
p185
I0
sV16
p186
I0
sV19
p187
I0
sV18
p188
I0
sg18
I45200
sg19
I8081
sg20
I19240
sg21
I1642
sg22
I3457
sg23
I409
sg24
I819
sg25
I102
sg26
I204
ssg27
I140562742
ssI2
(dp189
g6
(dp190
V11
p191
I25
sV10
p192
I51
sV13
p193
I6
sV12
p194
I12
sV15
p195
I1
sV14
p196
I3
sV17
p197
I0
sV16
p198
I0
sV19
p199
I0
sV18
p200
I0
sg18
I43935
sg19
I7694
sg20
I18501
sg21
I1639
sg22
I3368
sg23
I409
sg24
I819
sg25
I102
sg26
I204
ssg27
I13847179
ssI4
(dp201
g6
(dp202
V11
p203
I25
sV10
p204
I51
sV13
p205
I6
sV12
p206
I12
sV15
p207
I1
sV14
p208
I3
sV17
p209
I0
sV16
p210
I0
sV19
p211
I0
sV18
p212
I0
sg18
I44933
sg19
I7988
sg20
I19049
sg21
I1641
sg22
I3432
sg23
I409
sg24
I819
sg25
I102
sg26
I204
ssg27
I25922365
ssI8
(dp213
g6
(dp214
V11
p215
I25
sV10
p216
I51
sV13
p217
I6
sV12
p218
I12
sV15
p219
I1
sV14
p220
I3
sV17
p221
I0
sV16
p222
I0
sV19
p223
I0
sV18
p224
I0
sg18
I45068
sg19
I8041
sg20
I19145
sg21
I1642
sg22
I3453
sg23
I409
sg24
I819
sg25
I102
sg26
I204
ssg27
I46244987
ssI16
(dp225
g6
(dp226
V11
p227
I25
sV10
p228
I51
sV13
p229
I6
sV12
p230
I12
sV15
p231
I1
sV14
p232
I3
sV17
p233
I0
sV16
p234
I0
sV19
p235
I0
sV18
p236
I0
sg18
I45142
sg19
I8058
sg20
I19203
sg21
I1643
sg22
I3463
sg23
I409
sg24
I819
sg25
I102
sg26
I204
ssg27
I82925520
sssI20
(dp237
I64
(dp238
g6
(dp239
V11
p240
I25
sV10
p241
I51
sV13
p242
I6
sV12
p243
I12
sV15
p244
I1
sV14
p245
I3
sV17
p246
I0
sV16
p247
I0
sV19
p248
I0
sV18
p249
I0
sg18
I45134
sg19
I7870
sg20
I19021
sg21
I1639
sg22
I3392
sg23
I409
sg24
I819
sg25
I102
sg26
I204
ssg27
I179750591
ssI32
(dp250
g6
(dp251
V11
p252
I25
sV10
p253
I51
sV13
p254
I6
sV12
p255
I12
sV15
p256
I1
sV14
p257
I3
sV17
p258
I0
sV16
p259
I0
sV19
p260
I0
sV18
p261
I0
sg18
I45098
sg19
I8041
sg20
I19164
sg21
I1642
sg22
I3455
sg23
I409
sg24
I819
sg25
I102
sg26
I204
ssg27
I149907966
ssI2
(dp262
g6
(dp263
V11
p264
I25
sV10
p265
I51
sV13
p266
I6
sV12
p267
I12
sV15
p268
I1
sV14
p269
I3
sV17
p270
I0
sV16
p271
I0
sV19
p272
I0
sV18
p273
I0
sg18
I41081
sg19
I7152
sg20
I17105
sg21
I1638
sg22
I3299
sg23
I409
sg24
I819
sg25
I102
sg26
I204
ssg27
I15572340
ssI4
(dp274
g6
(dp275
V11
p276
I25
sV10
p277
I51
sV13
p278
I6
sV12
p279
I12
sV15
p280
I1
sV14
p281
I3
sV17
p282
I0
sV16
p283
I0
sV19
p284
I0
sV18
p285
I0
sg18
I43634
sg19
I7625
sg20
I18343
sg21
I1638
sg22
I3354
sg23
I409
sg24
I819
sg25
I102
sg26
I204
ssg27
I29168631
ssI8
(dp286
g6
(dp287
V11
p288
I25
sV10
p289
I51
sV13
p290
I6
sV12
p291
I12
sV15
p292
I1
sV14
p293
I3
sV17
p294
I0
sV16
p295
I0
sV19
p296
I0
sV18
p297
I0
sg18
I44699
sg19
I7905
sg20
I18910
sg21
I1641
sg22
I3418
sg23
I409
sg24
I819
sg25
I102
sg26
I204
ssg27
I52248565
ssI16
(dp298
g6
(dp299
V11
p300
I25
sV10
p301
I51
sV13
p302
I6
sV12
p303
I12
sV15
p304
I1
sV14
p305
I3
sV17
p306
I0
sV16
p307
I0
sV19
p308
I0
sV18
p309
I0
sg18
I45060
sg19
I8020
sg20
I19126
sg21
I1642
sg22
I3439
sg23
I409
sg24
I819
sg25
I102
sg26
I204
ssg27
I91174341
sssssS'originl-rotating-skiplist'
p310
(dp311
I524288
(dp312
I50
(dp313
I64
(dp314
g6
(dp315
V11
p316
I25
sV10
p317
I51
sV13
p318
I6
sV12
p319
I12
sV15
p320
I1
sV14
p321
I3
sV17
p322
I0
sV16
p323
I0
sV19
p324
I0
sV18
p325
I0
sg18
I45123
sg19
I7963
sg20
I19110
sg21
I1640
sg22
I3419
sg23
I409
sg24
I819
sg25
I102
sg26
I204
ssg27
I192408118
ssI32
(dp326
g6
(dp327
V11
p328
I25
sV10
p329
I51
sV13
p330
I6
sV12
p331
I12
sV15
p332
I1
sV14
p333
I3
sV17
p334
I0
sV16
p335
I0
sV19
p336
I0
sV18
p337
I0
sg18
I45148
sg19
I8062
sg20
I19187
sg21
I1643
sg22
I3459
sg23
I409
sg24
I819
sg25
I102
sg26
I204
ssg27
I152585657
ssI2
(dp338
g6
(dp339
V11
p340
I25
sV10
p341
I51
sV13
p342
I6
sV12
p343
I12
sV15
p344
I1
sV14
p345
I3
sV17
p346
I0
sV16
p347
I0
sV19
p348
I0
sV18
p349
I0
sg18
I44188
sg19
I7767
sg20
I18629
sg21
I1639
sg22
I3384
sg23
I409
sg24
I819
sg25
I102
sg26
I204
ssg27
I15332074
ssI4
(dp350
g6
(dp351
V11
p352
I25
sV10
p353
I51
sV13
p354
I6
sV12
p355
I12
sV15
p356
I1
sV14
p357
I3
sV17
p358
I0
sV16
p359
I0
sV19
p360
I0
sV18
p361
I0
sg18
I44925
sg19
I7976
sg20
I19039
sg21
I1642
sg22
I3437
sg23
I409
sg24
I819
sg25
I102
sg26
I204
ssg27
I28166939
ssI8
(dp362
g6
(dp363
V11
p364
I25
sV10
p365
I51
sV13
p366
I6
sV12
p367
I12
sV15
p368
I1
sV14
p369
I3
sV17
p370
I0
sV16
p371
I0
sV19
p372
I0
sV18
p373
I0
sg18
I45098
sg19
I8041
sg20
I19157
sg21
I1643
sg22
I3452
sg23
I409
sg24
I819
sg25
I102
sg26
I204
ssg27
I50178345
ssI16
(dp374
g6
(dp375
V11
p376
I25
sV10
p377
I51
sV13
p378
I6
sV12
p379
I12
sV15
p380
I1
sV14
p381
I3
sV17
p382
I0
sV16
p383
I0
sV19
p384
I0
sV18
p385
I0
sg18
I45154
sg19
I8071
sg20
I19213
sg21
I1644
sg22
I3466
sg23
I409
sg24
I819
sg25
I102
sg26
I204
ssg27
I91329408
sssI20
(dp386
I64
(dp387
g6
(dp388
V11
p389
I25
sV10
p390
I51
sV13
p391
I6
sV12
p392
I12
sV15
p393
I1
sV14
p394
I3
sV17
p395
I0
sV16
p396
I0
sV19
p397
I0
sV18
p398
I0
sg18
I45173
sg19
I8052
sg20
I19207
sg21
I1643
sg22
I3456
sg23
I409
sg24
I819
sg25
I102
sg26
I204
ssg27
I237754406
ssI32
(dp399
g6
(dp400
V11
p401
I25
sV10
p402
I51
sV13
p403
I6
sV12
p404
I12
sV15
p405
I1
sV14
p406
I3
sV17
p407
I0
sV16
p408
I0
sV19
p409
I0
sV18
p410
I0
sg18
I45130
sg19
I8053
sg20
I19190
sg21
I1642
sg22
I3459
sg23
I409
sg24
I819
sg25
I102
sg26
I204
ssg27
I169027160
ssI2
(dp411
g6
(dp412
V11
p413
I25
sV10
p414
I51
sV13
p415
I6
sV12
p416
I12
sV15
p417
I1
sV14
p418
I3
sV17
p419
I0
sV16
p420
I0
sV19
p421
I0
sV18
p422
I0
sg18
I41604
sg19
I7230
sg20
I17338
sg21
I1638
sg22
I3305
sg23
I409
sg24
I819
sg25
I102
sg26
I204
ssg27
I16961378
ssI4
(dp423
g6
(dp424
V11
p425
I25
sV10
p426
I51
sV13
p427
I6
sV12
p428
I12
sV15
p429
I1
sV14
p430
I3
sV17
p431
I0
sV16
p432
I0
sV19
p433
I0
sV18
p434
I0
sg18
I43671
sg19
I7633
sg20
I18354
sg21
I1639
sg22
I3356
sg23
I409
sg24
I819
sg25
I102
sg26
I204
ssg27
I31378413
ssI8
(dp435
g6
(dp436
V11
p437
I25
sV10
p438
I51
sV13
p439
I6
sV12
p440
I12
sV15
p441
I1
sV14
p442
I3
sV17
p443
I0
sV16
p444
I0
sV19
p445
I0
sV18
p446
I0
sg18
I44770
sg19
I7939
sg20
I18948
sg21
I1641
sg22
I3430
sg23
I409
sg24
I819
sg25
I102
sg26
I204
ssg27
I56485249
ssI16
(dp447
g6
(dp448
V11
p449
I25
sV10
p450
I51
sV13
p451
I6
sV12
p452
I12
sV15
p453
I1
sV14
p454
I3
sV17
p455
I0
sV16
p456
I0
sV19
p457
I0
sV18
p458
I0
sg18
I45055
sg19
I8023
sg20
I19124
sg21
I1642
sg22
I3451
sg23
I409
sg24
I819
sg25
I102
sg26
I204
ssg27
I100236822
sssssS'level-delete-by-ratio-3_4'
p459
(dp460
I524288
(dp461
I50
(dp462
I64
(dp463
g6
(dp464
V11
p465
I25
sV10
p466
I51
sV13
p467
I6
sV12
p468
I12
sV15
p469
I1
sV14
p470
I3
sV17
p471
I0
sV16
p472
I0
sV19
p473
I0
sV18
p474
I0
sg18
I45141
sg19
I7953
sg20
I19121
sg21
I1640
sg22
I3414
sg23
I409
sg24
I819
sg25
I102
sg26
I204
ssg27
I206416940
ssI32
(dp475
g6
(dp476
V11
p477
I25
sV10
p478
I51
sV13
p479
I6
sV12
p480
I12
sV15
p481
I1
sV14
p482
I3
sV17
p483
I0
sV16
p484
I0
sV19
p485
I0
sV18
p486
I0
sg18
I45183
sg19
I8086
sg20
I19225
sg21
I1644
sg22
I3466
sg23
I409
sg24
I819
sg25
I102
sg26
I204
ssg27
I155574533
ssI2
(dp487
g6
(dp488
V11
p489
I25
sV10
p490
I51
sV13
p491
I6
sV12
p492
I12
sV15
p493
I1
sV14
p494
I3
sV17
p495
I0
sV16
p496
I0
sV19
p497
I0
sV18
p498
I0
sg18
I44308
sg19
I7804
sg20
I18702
sg21
I1640
sg22
I3391
sg23
I409
sg24
I819
sg25
I102
sg26
I204
ssg27
I15401233
ssI4
(dp499
g6
(dp500
V11
p501
I25
sV10
p502
I51
sV13
p503
I6
sV12
p504
I12
sV15
p505
I1
sV14
p506
I3
sV17
p507
I0
sV16
p508
I0
sV19
p509
I0
sV18
p510
I0
sg18
I44969
sg19
I7980
sg20
I19052
sg21
I1641
sg22
I3441
sg23
I409
sg24
I819
sg25
I102
sg26
I204
ssg27
I28339257
ssI8
(dp511
g6
(dp512
V11
p513
I25
sV10
p514
I51
sV13
p515
I6
sV12
p516
I12
sV15
p517
I1
sV14
p518
I3
sV17
p519
I0
sV16
p520
I0
sV19
p521
I0
sV18
p522
I0
sg18
I45079
sg19
I8039
sg20
I19149
sg21
I1643
sg22
I3458
sg23
I409
sg24
I819
sg25
I102
sg26
I204
ssg27
I50685012
ssI16
(dp523
g6
(dp524
V11
p525
I25
sV10
p526
I51
sV13
p527
I6
sV12
p528
I12
sV15
p529
I1
sV14
p530
I3
sV17
p531
I0
sV16
p532
I0
sV19
p533
I0
sV18
p534
I0
sg18
I45137
sg19
I8061
sg20
I19207
sg21
I1643
sg22
I3462
sg23
I409
sg24
I819
sg25
I102
sg26
I204
ssg27
I90867650
sssI20
(dp535
I64
(dp536
g6
(dp537
V11
p538
I25
sV10
p539
I51
sV13
p540
I6
sV12
p541
I12
sV15
p542
I1
sV14
p543
I3
sV17
p544
I0
sV16
p545
I0
sV19
p546
I0
sV18
p547
I0
sg18
I45177
sg19
I8049
sg20
I19213
sg21
I1642
sg22
I3446
sg23
I409
sg24
I819
sg25
I102
sg26
I204
ssg27
I214908152
ssI32
(dp548
g6
(dp549
V11
p550
I25
sV10
p551
I51
sV13
p552
I6
sV12
p553
I12
sV15
p554
I1
sV14
p555
I3
sV17
p556
I0
sV16
p557
I0
sV19
p558
I0
sV18
p559
I0
sg18
I45133
sg19
I8047
sg20
I19192
sg21
I1643
sg22
I3460
sg23
I409
sg24
I819
sg25
I102
sg26
I204
ssg27
I164835679
ssI2
(dp560
g6
(dp561
V11
p562
I25
sV10
p563
I51
sV13
p564
I6
sV12
p565
I12
sV15
p566
I1
sV14
p567
I3
sV17
p568
I0
sV16
p569
I0
sV19
p570
I0
sV18
p571
I0
sg18
I41361
sg19
I7214
sg20
I17241
sg21
I1638
sg22
I3304
sg23
I409
sg24
I819
sg25
I102
sg26
I204
ssg27
I17367809
ssI4
(dp572
g6
(dp573
V11
p574
I25
sV10
p575
I51
sV13
p576
I6
sV12
p577
I12
sV15
p578
I1
sV14
p579
I3
sV17
p580
I0
sV16
p581
I0
sV19
p582
I0
sV18
p583
I0
sg18
I43799
sg19
I7664
sg20
I18412
sg21
I1639
sg22
I3368
sg23
I409
sg24
I819
sg25
I102
sg26
I204
ssg27
I31508770
ssI8
(dp584
g6
(dp585
V11
p586
I25
sV10
p587
I51
sV13
p588
I6
sV12
p589
I12
sV15
p590
I1
sV14
p591
I3
sV17
p592
I0
sV16
p593
I0
sV19
p594
I0
sV18
p595
I0
sg18
I44860
sg19
I7954
sg20
I18986
sg21
I1641
sg22
I3431
sg23
I409
sg24
I819
sg25
I102
sg26
I204
ssg27
I55916938
ssI16
(dp596
g6
(dp597
V11
p598
I25
sV10
p599
I51
sV13
p600
I6
sV12
p601
I12
sV15
p602
I1
sV14
p603
I3
sV17
p604
I0
sV16
p605
I0
sV19
p606
I0
sV18
p607
I0
sg18
I45065
sg19
I8041
sg20
I19142
sg21
I1643
sg22
I3447
sg23
I409
sg24
I819
sg25
I102
sg26
I204
ssg27
I99843510
sssssS'dynamic-max-level'
p608
(dp609
I524288
(dp610
I50
(dp611
I64
(dp612
g6
(dp613
V11
p614
I25
sV10
p615
I51
sV13
p616
I6
sV12
p617
I12
sV15
p618
I1
sV14
p619
I3
sV17
p620
I0
sV16
p621
I0
sV19
p622
I0
sV18
p623
I0
sg18
I45169
sg19
I8039
sg20
I19186
sg21
I1642
sg22
I3447
sg23
I409
sg24
I819
sg25
I102
sg26
I204
ssg27
I207219132
ssI32
(dp624
g6
(dp625
V11
p626
I25
sV10
p627
I51
sV13
p628
I6
sV12
p629
I12
sV15
p630
I1
sV14
p631
I3
sV17
p632
I0
sV16
p633
I0
sV19
p634
I0
sV18
p635
I0
sg18
I45180
sg19
I8073
sg20
I19220
sg21
I1643
sg22
I3463
sg23
I409
sg24
I819
sg25
I102
sg26
I204
ssg27
I152714067
ssI2
(dp636
g6
(dp637
V11
p638
I25
sV10
p639
I51
sV13
p640
I6
sV12
p641
I12
sV15
p642
I1
sV14
p643
I3
sV17
p644
I0
sV16
p645
I0
sV19
p646
I0
sV18
p647
I0
sg18
I44329
sg19
I7797
sg20
I18706
sg21
I1639
sg22
I3389
sg23
I409
sg24
I819
sg25
I102
sg26
I204
ssg27
I15396722
ssI4
(dp648
g6
(dp649
V11
p650
I25
sV10
p651
I51
sV13
p652
I6
sV12
p653
I12
sV15
p654
I1
sV14
p655
I3
sV17
p656
I0
sV16
p657
I0
sV19
p658
I0
sV18
p659
I0
sg18
I44964
sg19
I7995
sg20
I19073
sg21
I1641
sg22
I3437
sg23
I409
sg24
I819
sg25
I102
sg26
I204
ssg27
I28406872
ssI8
(dp660
g6
(dp661
V11
p662
I25
sV10
p663
I51
sV13
p664
I6
sV12
p665
I12
sV15
p666
I1
sV14
p667
I3
sV17
p668
I0
sV16
p669
I0
sV19
p670
I0
sV18
p671
I0
sg18
I45100
sg19
I8048
sg20
I19164
sg21
I1644
sg22
I3461
sg23
I409
sg24
I819
sg25
I102
sg26
I204
ssg27
I50394845
ssI16
(dp672
g6
(dp673
V11
p674
I25
sV10
p675
I51
sV13
p676
I6
sV12
p677
I12
sV15
p678
I1
sV14
p679
I3
sV17
p680
I0
sV16
p681
I0
sV19
p682
I0
sV18
p683
I0
sg18
I45129
sg19
I8058
sg20
I19182
sg21
I1643
sg22
I3463
sg23
I409
sg24
I819
sg25
I102
sg26
I204
ssg27
I90785301
sssI20
(dp684
I64
(dp685
g6
(dp686
V11
p687
I25
sV10
p688
I51
sV13
p689
I6
sV12
p690
I12
sV15
p691
I1
sV14
p692
I3
sV17
p693
I0
sV16
p694
I0
sV19
p695
I0
sV18
p696
I0
sg18
I44908
sg19
I7755
sg20
I18823
sg21
I1639
sg22
I3371
sg23
I409
sg24
I819
sg25
I102
sg26
I204
ssg27
I200679078
ssI32
(dp697
g6
(dp698
V11
p699
I25
sV10
p700
I51
sV13
p701
I6
sV12
p702
I12
sV15
p703
I1
sV14
p704
I3
sV17
p705
I0
sV16
p706
I0
sV19
p707
I0
sV18
p708
I0
sg18
I45114
sg19
I8050
sg20
I19174
sg21
I1643
sg22
I3453
sg23
I409
sg24
I819
sg25
I102
sg26
I204
ssg27
I167335823
ssI2
(dp709
g6
(dp710
V11
p711
I25
sV10
p712
I51
sV13
p713
I6
sV12
p714
I12
sV15
p715
I1
sV14
p716
I3
sV17
p717
I0
sV16
p718
I0
sV19
p719
I0
sV18
p720
I0
sg18
I41277
sg19
I7198
sg20
I17199
sg21
I1638
sg22
I3301
sg23
I409
sg24
I819
sg25
I102
sg26
I204
ssg27
I17174420
ssI4
(dp721
g6
(dp722
V11
p723
I25
sV10
p724
I51
sV13
p725
I6
sV12
p726
I12
sV15
p727
I1
sV14
p728
I3
sV17
p729
I0
sV16
p730
I0
sV19
p731
I0
sV18
p732
I0
sg18
I43771
sg19
I7671
sg20
I18396
sg21
I1639
sg22
I3365
sg23
I409
sg24
I819
sg25
I102
sg26
I204
ssg27
I31667863
ssI8
(dp733
g6
(dp734
V11
p735
I25
sV10
p736
I51
sV13
p737
I6
sV12
p738
I12
sV15
p739
I1
sV14
p740
I3
sV17
p741
I0
sV16
p742
I0
sV19
p743
I0
sV18
p744
I0
sg18
I44816
sg19
I7929
sg20
I18962
sg21
I1640
sg22
I3423
sg23
I409
sg24
I819
sg25
I102
sg26
I204
ssg27
I55150803
ssI16
(dp745
g6
(dp746
V11
p747
I25
sV10
p748
I51
sV13
p749
I6
sV12
p750
I12
sV15
p751
I1
sV14
p752
I3
sV17
p753
I0
sV16
p754
I0
sV19
p755
I0
sV18
p756
I0
sg18
I45050
sg19
I8030
sg20
I19133
sg21
I1642
sg22
I3450
sg23
I409
sg24
I819
sg25
I102
sg26
I204
ssg27
I100765527
sssss.