(dp0
S'level-delete-by-ratio-3_4'
p1
(dp2
I256
(dp3
I30
(dp4
I64
(dp5
S'nodes'
p6
(dp7
V1
p8
I17
sV3
p9
I2
sV2
p10
I7
sV5
p11
I0
sV4
p12
I1
sV7
p13
I0
sV6
p14
I0
sV8
p15
I0
ssS'txs'
p16
I1050544834
ssI32
(dp17
g6
(dp18
g8
I16
sg9
I3
sg10
I6
sg11
I0
sg12
I1
sg13
I0
sg14
I0
sg15
I0
ssg16
I813317706
ssI2
(dp19
g6
(dp20
g8
I16
sg9
I2
sg10
I7
sg11
I0
sg12
I1
sg13
I0
sg14
I0
sg15
I0
ssg16
I147078233
ssI4
(dp21
g6
(dp22
g8
I17
sg9
I3
sg10
I7
sg11
I0
sg12
I1
sg13
I0
sg14
I0
sg15
I0
ssg16
I238350640
ssI8
(dp23
g6
(dp24
g8
I16
sg9
I2
sg10
I7
sg11
I0
sg12
I1
sg13
I0
sg14
I0
sg15
I0
ssg16
I333967872
ssI16
(dp25
g6
(dp26
g8
I17
sg9
I3
sg10
I7
sg11
I0
sg12
I1
sg13
I0
sg14
I0
sg15
I0
ssg16
I545996121
sssI70
(dp27
I64
(dp28
g6
(dp29
g8
I16
sg9
I3
sg10
I7
sg11
I0
sg12
I1
sg13
I0
sg14
I0
sg15
I0
ssg16
I849435800
ssI32
(dp30
g6
(dp31
g8
I16
sg9
I3
sg10
I7
sg11
I0
sg12
I1
sg13
I0
sg14
I0
sg15
I0
ssg16
I671339229
ssI2
(dp32
g6
(dp33
g8
I17
sg9
I3
sg10
I7
sg11
I0
sg12
I1
sg13
I0
sg14
I0
sg15
I0
ssg16
I129029382
ssI4
(dp34
g6
(dp35
g8
I17
sg9
I3
sg10
I7
sg11
I0
sg12
I1
sg13
I0
sg14
I0
sg15
I0
ssg16
I197814182
ssI8
(dp36
g6
(dp37
g8
I16
sg9
I2
sg10
I6
sg11
I0
sg12
I1
sg13
I0
sg14
I0
sg15
I0
ssg16
I275231930
ssI16
(dp38
g6
(dp39
g8
I16
sg9
I3
sg10
I7
sg11
I0
sg12
I1
sg13
I0
sg14
I0
sg15
I0
ssg16
I453768183
ssssI1024
(dp40
I30
(dp41
I64
(dp42
g6
(dp43
V10
p44
I0
sg8
I68
sg9
I12
sg10
I29
sg11
I2
sg12
I5
sg13
I0
sg14
I1
sV9
p45
I0
sg15
I0
ssg16
I1293027362
ssI32
(dp46
g6
(dp47
V10
p48
I0
sg8
I68
sg9
I12
sg10
I29
sg11
I2
sg12
I5
sg13
I0
sg14
I1
sg45
I0
sg15
I0
ssg16
I842317333
ssI2
(dp49
g6
(dp50
V10
p51
I0
sg8
I68
sg9
I11
sg10
I28
sg11
I2
sg12
I5
sg13
I0
sg14
I1
sg45
I0
sg15
I0
ssg16
I123020275
ssI4
(dp52
g6
(dp53
V10
p54
I0
sg8
I67
sg9
I12
sg10
I28
sg11
I2
sg12
I5
sg13
I0
sg14
I1
sg45
I0
sg15
I0
ssg16
I204444128
ssI8
(dp55
g6
(dp56
V10
p57
I0
sg8
I67
sg9
I12
sg10
I29
sg11
I2
sg12
I5
sg13
I0
sg14
I1
sg45
I0
sg15
I0
ssg16
I300207823
ssI16
(dp58
g6
(dp59
V10
p60
I0
sg8
I67
sg9
I12
sg10
I28
sg11
I2
sg12
I5
sg13
I0
sg14
I1
sg45
I0
sg15
I0
ssg16
I516706029
sssI70
(dp61
I64
(dp62
g6
(dp63
V10
p64
I0
sg8
I67
sg9
I11
sg10
I28
sg11
I2
sg12
I5
sg13
I0
sg14
I1
sg45
I0
sg15
I0
ssg16
I1067592114
ssI32
(dp65
g6
(dp66
V10
p67
I0
sg8
I67
sg9
I11
sg10
I28
sg11
I2
sg12
I5
sg13
I0
sg14
I1
sg45
I0
sg15
I0
ssg16
I721483368
ssI2
(dp68
g6
(dp69
V10
p70
I0
sg8
I67
sg9
I12
sg10
I29
sg11
I2
sg12
I5
sg13
I0
sg14
I1
sg45
I0
sg15
I0
ssg16
I108172069
ssI4
(dp71
g6
(dp72
V10
p73
I0
sg8
I68
sg9
I12
sg10
I29
sg11
I2
sg12
I5
sg13
I0
sg14
I1
sg45
I0
sg15
I0
ssg16
I175080366
ssI8
(dp74
g6
(dp75
V10
p76
I0
sg8
I68
sg9
I12
sg10
I29
sg11
I2
sg12
I5
sg13
I0
sg14
I1
sg45
I0
sg15
I0
ssg16
I256082206
ssI16
(dp77
g6
(dp78
V10
p79
I0
sg8
I67
sg9
I11
sg10
I28
sg11
I2
sg12
I5
sg13
I0
sg14
I1
sg45
I0
sg15
I0
ssg16
I443064713
sssssS'max-level-10'
p80
(dp81
I256
(dp82
I30
(dp83
I64
(dp84
g6
(dp85
g8
I16
sg9
I3
sg10
I7
sg11
I0
sg12
I1
sg13
I0
sg14
I0
sg15
I0
ssg16
I1043227598
ssI32
(dp86
g6
(dp87
g8
I17
sg9
I3
sg10
I7
sg11
I0
sg12
I1
sg13
I0
sg14
I0
sg15
I0
ssg16
I818357317
ssI2
(dp88
g6
(dp89
g8
I16
sg9
I3
sg10
I7
sg11
I0
sg12
I1
sg13
I0
sg14
I0
sg15
I0
ssg16
I149031969
ssI4
(dp90
g6
(dp91
g8
I16
sg9
I2
sg10
I7
sg11
I0
sg12
I1
sg13
I0
sg14
I0
sg15
I0
ssg16
I242514449
ssI8
(dp92
g6
(dp93
g8
I17
sg9
I3
sg10
I7
sg11
I0
sg12
I1
sg13
I0
sg14
I0
sg15
I0
ssg16
I335600883
ssI16
(dp94
g6
(dp95
g8
I16
sg9
I3
sg10
I7
sg11
I0
sg12
I1
sg13
I0
sg14
I0
sg15
I0
ssg16
I561681872
sssI70
(dp96
I64
(dp97
g6
(dp98
g8
I16
sg9
I3
sg10
I7
sg11
I0
sg12
I1
sg13
I0
sg14
I0
sg15
I0
ssg16
I835337815
ssI32
(dp99
g6
(dp100
g8
I16
sg9
I2
sg10
I7
sg11
I0
sg12
I1
sg13
I0
sg14
I0
sg15
I0
ssg16
I673055465
ssI2
(dp101
g6
(dp102
g8
I17
sg9
I3
sg10
I7
sg11
I0
sg12
I1
sg13
I0
sg14
I0
sg15
I0
ssg16
I129220378
ssI4
(dp103
g6
(dp104
g8
I17
sg9
I3
sg10
I7
sg11
I0
sg12
I1
sg13
I0
sg14
I0
sg15
I0
ssg16
I200492278
ssI8
(dp105
g6
(dp106
g8
I16
sg9
I2
sg10
I7
sg11
I0
sg12
I1
sg13
I0
sg14
I0
sg15
I0
ssg16
I280164105
ssI16
(dp107
g6
(dp108
g8
I17
sg9
I2
sg10
I6
sg11
I0
sg12
I1
sg13
I0
sg14
I0
sg15
I0
ssg16
I468904648
ssssI1024
(dp109
I30
(dp110
I64
(dp111
g6
(dp112
V10
p113
I0
sg8
I68
sg9
I12
sg10
I29
sg11
I2
sg12
I5
sg13
I0
sg14
I1
sg45
I0
sg15
I0
ssg16
I1300357885
ssI32
(dp114
g6
(dp115
V10
p116
I0
sg8
I68
sg9
I12
sg10
I29
sg11
I2
sg12
I5
sg13
I0
sg14
I1
sg45
I0
sg15
I0
ssg16
I859449420
ssI2
(dp117
g6
(dp118
V10
p119
I0
sg8
I68
sg9
I12
sg10
I29
sg11
I2
sg12
I5
sg13
I0
sg14
I1
sg45
I0
sg15
I0
ssg16
I125361654
ssI4
(dp120
g6
(dp121
V10
p122
I0
sg8
I67
sg9
I12
sg10
I28
sg11
I2
sg12
I5
sg13
I0
sg14
I1
sg45
I0
sg15
I0
ssg16
I210323119
ssI8
(dp123
g6
(dp124
V10
p125
I0
sg8
I67
sg9
I12
sg10
I28
sg11
I2
sg12
I5
sg13
I0
sg14
I1
sg45
I0
sg15
I0
ssg16
I306080116
ssI16
(dp126
g6
(dp127
V10
p128
I0
sg8
I67
sg9
I12
sg10
I29
sg11
I2
sg12
I5
sg13
I0
sg14
I1
sg45
I0
sg15
I0
ssg16
I534199388
sssI70
(dp129
I64
(dp130
g6
(dp131
V10
p132
I0
sg8
I68
sg9
I12
sg10
I28
sg11
I2
sg12
I5
sg13
I0
sg14
I1
sg45
I0
sg15
I0
ssg16
I1063893565
ssI32
(dp133
g6
(dp134
V10
p135
I0
sg8
I67
sg9
I12
sg10
I29
sg11
I2
sg12
I5
sg13
I0
sg14
I1
sg45
I0
sg15
I0
ssg16
I726974495
ssI2
(dp136
g6
(dp137
V10
p138
I0
sg8
I67
sg9
I11
sg10
I28
sg11
I2
sg12
I5
sg13
I0
sg14
I1
sg45
I0
sg15
I0
ssg16
I111714867
ssI4
(dp139
g6
(dp140
V10
p141
I0
sg8
I67
sg9
I12
sg10
I29
sg11
I2
sg12
I5
sg13
I0
sg14
I1
sg45
I0
sg15
I0
ssg16
I177679268
ssI8
(dp142
g6
(dp143
V10
p144
I0
sg8
I67
sg9
I12
sg10
I28
sg11
I2
sg12
I5
sg13
I0
sg14
I1
sg45
I0
sg15
I0
ssg16
I258098525
ssI16
(dp145
g6
(dp146
V10
p147
I0
sg8
I67
sg9
I12
sg10
I28
sg11
I2
sg12
I5
sg13
I0
sg14
I1
sg45
I0
sg15
I0
ssg16
I446879078
sssssS'threads-help-remove-log-number-threads'
p148
(dp149
I512
(dp150
I60
(dp151
I64
(dp152
S'nodes'
p153
(dp154
V1
p155
I36
sV3
p156
I6
sV2
p157
I15
sV5
p158
I1
sV4
p159
I2
sV7
p160
I0
sV6
p161
I0
sV9
p162
I0
sV8
p163
I0
ssS'txs'
p164
I645443502
ssI32
(dp165
g153
(dp166
g155
I36
sg156
I6
sg157
I15
sg158
I1
sg159
I2
sg160
I0
sg161
I0
sg162
I0
sg163
I0
ssg164
I474135323
ssI2
(dp167
g153
(dp168
g155
I37
sg156
I6
sg157
I15
sg158
I1
sg159
I2
sg160
I0
sg161
I0
sg162
I0
sg163
I0
ssg164
I77546997
ssI4
(dp169
g153
(dp170
g155
I36
sg156
I6
sg157
I15
sg158
I1
sg159
I2
sg160
I0
sg161
I0
sg162
I0
sg163
I0
ssg164
I122968270
ssI8
(dp171
g153
(dp172
g155
I36
sg156
I6
sg157
I15
sg158
I1
sg159
I2
sg160
I0
sg161
I0
sg162
I0
sg163
I0
ssg164
I174984117
ssI16
(dp173
g153
(dp174
g155
I37
sg156
I6
sg157
I15
sg158
I1
sg159
I2
sg160
I0
sg161
I0
sg162
I0
sg163
I0
ssg164
I299644766
sssI30
(dp175
I64
(dp176
g153
(dp177
g155
I36
sg156
I6
sg157
I15
sg158
I1
sg159
I2
sg160
I0
sg161
I0
sg162
I0
sg163
I0
ssg164
I799109865
ssI32
(dp178
g153
(dp179
g155
I36
sg156
I6
sg157
I16
sg158
I1
sg159
I2
sg160
I0
sg161
I0
sg162
I0
sg163
I0
ssg164
I564274682
ssI2
(dp180
g153
(dp181
g155
I36
sg156
I6
sg157
I15
sg158
I1
sg159
I2
sg160
I0
sg161
I0
sg162
I0
sg163
I0
ssg164
I89114431
ssI4
(dp182
g153
(dp183
g155
I36
sg156
I6
sg157
I15
sg158
I1
sg159
I2
sg160
I0
sg161
I0
sg162
I0
sg163
I0
ssg164
I146890583
ssI8
(dp184
g153
(dp185
g155
I37
sg156
I6
sg157
I15
sg158
I1
sg159
I2
sg160
I0
sg161
I0
sg162
I0
sg163
I0
ssg164
I212484654
ssI16
(dp186
g153
(dp187
g155
I36
sg156
I6
sg157
I16
sg158
I1
sg159
I2
sg160
I0
sg161
I0
sg162
I0
sg163
I0
ssg164
I355111333
ssssI65536
(dp188
I60
(dp189
I64
(dp190
g153
(dp191
V11
p192
I2
sV10
p193
I5
sV13
p194
I0
sV12
p195
I1
sV15
p196
I0
sV14
p197
I0
sV16
p198
I0
sg155
I4704
sg156
I838
sg157
I2001
sg158
I171
sg159
I359
sg160
I42
sg161
I85
sg162
I10
sg163
I21
ssg164
I605581449
ssI32
(dp199
g153
(dp200
V11
p201
I2
sV10
p202
I5
sV13
p203
I0
sV12
p204
I1
sV15
p205
I0
sV14
p206
I0
sV16
p207
I0
sg155
I4711
sg156
I844
sg157
I2007
sg158
I171
sg159
I362
sg160
I42
sg161
I85
sg162
I10
sg163
I21
ssg164
I351725041
ssI2
(dp208
g153
(dp209
V11
p210
I2
sV10
p211
I5
sV13
p212
I0
sV12
p213
I1
sV15
p214
I0
sV14
p215
I0
sV16
p216
I0
sg155
I4697
sg156
I834
sg157
I1994
sg158
I170
sg159
I358
sg160
I42
sg161
I85
sg162
I10
sg163
I21
ssg164
I34496961
ssI4
(dp217
g153
(dp218
V11
p219
I2
sV10
p220
I5
sV13
p221
I0
sV12
p222
I1
sV15
p223
I0
sV14
p224
I0
sV16
p225
I0
sg155
I4698
sg156
I840
sg157
I2000
sg158
I171
sg159
I359
sg160
I42
sg161
I85
sg162
I10
sg163
I21
ssg164
I63258079
ssI8
(dp226
g153
(dp227
V11
p228
I2
sV10
p229
I5
sV13
p230
I0
sV12
p231
I1
sV15
p232
I0
sV14
p233
I0
sV16
p234
I0
sg155
I4707
sg156
I844
sg157
I2002
sg158
I171
sg159
I361
sg160
I42
sg161
I85
sg162
I10
sg163
I21
ssg164
I109098173
ssI16
(dp235
g153
(dp236
V11
p237
I2
sV10
p238
I5
sV13
p239
I0
sV12
p240
I1
sV15
p241
I0
sV14
p242
I0
sV16
p243
I0
sg155
I4714
sg156
I843
sg157
I2008
sg158
I171
sg159
I361
sg160
I42
sg161
I85
sg162
I10
sg163
I21
ssg164
I195201379
sssI30
(dp244
I64
(dp245
g153
(dp246
V11
p247
I2
sV10
p248
I5
sV13
p249
I0
sV12
p250
I1
sV15
p251
I0
sV14
p252
I0
sV16
p253
I0
sg155
I4708
sg156
I839
sg157
I2001
sg158
I171
sg159
I361
sg160
I42
sg161
I85
sg162
I10
sg163
I21
ssg164
I656965061
ssI32
(dp254
g153
(dp255
V11
p256
I2
sV10
p257
I5
sV13
p258
I0
sV12
p259
I1
sV15
p260
I0
sV14
p261
I0
sV16
p262
I0
sg155
I4707
sg156
I841
sg157
I2000
sg158
I171
sg159
I360
sg160
I42
sg161
I85
sg162
I10
sg163
I21
ssg164
I377520752
ssI2
(dp263
g153
(dp264
V11
p265
I2
sV10
p266
I5
sV13
p267
I0
sV12
p268
I1
sV15
p269
I0
sV14
p270
I0
sV16
p271
I0
sg155
I4693
sg156
I835
sg157
I1989
sg158
I171
sg159
I360
sg160
I42
sg161
I85
sg162
I10
sg163
I21
ssg164
I36907511
ssI4
(dp272
g153
(dp273
V11
p274
I2
sV10
p275
I5
sV13
p276
I0
sV12
p277
I1
sV15
p278
I0
sV14
p279
I0
sV16
p280
I0
sg155
I4697
sg156
I835
sg157
I1994
sg158
I171
sg159
I359
sg160
I42
sg161
I85
sg162
I10
sg163
I21
ssg164
I68818308
ssI8
(dp281
g153
(dp282
V11
p283
I2
sV10
p284
I5
sV13
p285
I0
sV12
p286
I1
sV15
p287
I0
sV14
p288
I0
sV16
p289
I0
sg155
I4700
sg156
I838
sg157
I1995
sg158
I171
sg159
I360
sg160
I42
sg161
I85
sg162
I10
sg163
I21
ssg164
I117193659
ssI16
(dp290
g153
(dp291
V11
p292
I2
sV10
p293
I5
sV13
p294
I0
sV12
p295
I1
sV15
p296
I0
sV14
p297
I0
sV16
p298
I0
sg155
I4711
sg156
I843
sg157
I2007
sg158
I171
sg159
I360
sg160
I42
sg161
I85
sg162
I10
sg163
I21
ssg164
I210604476
sssssS'dynamic-max-level'
p299
(dp300
I256
(dp301
I30
(dp302
I64
(dp303
g6
(dp304
g8
I16
sg9
I3
sg10
I7
sg11
I0
sg12
I1
sg13
I0
sg14
I0
sg15
I0
ssg16
I1053863322
ssI32
(dp305
g6
(dp306
g8
I17
sg9
I3
sg10
I7
sg11
I0
sg12
I1
sg13
I0
sg14
I0
sg15
I0
ssg16
I816858120
ssI2
(dp307
g6
(dp308
g8
I16
sg9
I3
sg10
I7
sg11
I0
sg12
I1
sg13
I0
sg14
I0
sg15
I0
ssg16
I149374006
ssI4
(dp309
g6
(dp310
g8
I17
sg9
I3
sg10
I7
sg11
I0
sg12
I1
sg13
I0
sg14
I0
sg15
I0
ssg16
I243007430
ssI8
(dp311
g6
(dp312
g8
I17
sg9
I3
sg10
I7
sg11
I0
sg12
I1
sg13
I0
sg14
I0
sg15
I0
ssg16
I335174501
ssI16
(dp313
g6
(dp314
g8
I17
sg9
I3
sg10
I7
sg11
I0
sg12
I1
sg13
I0
sg14
I0
sg15
I0
ssg16
I559184629
sssI70
(dp315
I64
(dp316
g6
(dp317
g8
I17
sg9
I3
sg10
I7
sg11
I0
sg12
I1
sg13
I0
sg14
I0
sg15
I0
ssg16
I846405939
ssI32
(dp318
g6
(dp319
g8
I16
sg9
I3
sg10
I7
sg11
I0
sg12
I1
sg13
I0
sg14
I0
sg15
I0
ssg16
I676970110
ssI2
(dp320
g6
(dp321
g8
I16
sg9
I2
sg10
I7
sg11
I0
sg12
I1
sg13
I0
sg14
I0
sg15
I0
ssg16
I129685612
ssI4
(dp322
g6
(dp323
g8
I17
sg9
I3
sg10
I7
sg11
I0
sg12
I1
sg13
I0
sg14
I0
sg15
I0
ssg16
I201048583
ssI8
(dp324
g6
(dp325
g8
I16
sg9
I2
sg10
I7
sg11
I0
sg12
I1
sg13
I0
sg14
I0
sg15
I0
ssg16
I278879315
ssI16
(dp326
g6
(dp327
g8
I17
sg9
I3
sg10
I7
sg11
I0
sg12
I1
sg13
I0
sg14
I0
sg15
I0
ssg16
I466693422
ssssI1024
(dp328
I30
(dp329
I64
(dp330
g6
(dp331
V10
p332
I0
sg8
I67
sg9
I12
sg10
I28
sg11
I2
sg12
I5
sg13
I0
sg14
I1
sg45
I0
sg15
I0
ssg16
I1306235411
ssI32
(dp333
g6
(dp334
V10
p335
I0
sg8
I68
sg9
I11
sg10
I29
sg11
I2
sg12
I5
sg13
I0
sg14
I1
sg45
I0
sg15
I0
ssg16
I859748474
ssI2
(dp336
g6
(dp337
V10
p338
I0
sg8
I67
sg9
I11
sg10
I28
sg11
I2
sg12
I5
sg13
I0
sg14
I1
sg45
I0
sg15
I0
ssg16
I124819699
ssI4
(dp339
g6
(dp340
V10
p341
I0
sg8
I69
sg9
I12
sg10
I29
sg11
I2
sg12
I5
sg13
I0
sg14
I1
sg45
I0
sg15
I0
ssg16
I207241554
ssI8
(dp342
g6
(dp343
V10
p344
I0
sg8
I68
sg9
I11
sg10
I27
sg11
I2
sg12
I5
sg13
I0
sg14
I1
sg45
I0
sg15
I0
ssg16
I303709358
ssI16
(dp345
g6
(dp346
V10
p347
I0
sg8
I68
sg9
I12
sg10
I29
sg11
I2
sg12
I5
sg13
I0
sg14
I1
sg45
I0
sg15
I0
ssg16
I526286979
sssI70
(dp348
I64
(dp349
g6
(dp350
V10
p351
I0
sg8
I68
sg9
I11
sg10
I28
sg11
I2
sg12
I5
sg13
I0
sg14
I1
sg45
I0
sg15
I0
ssg16
I1082450163
ssI32
(dp352
g6
(dp353
V10
p354
I0
sg8
I68
sg9
I12
sg10
I28
sg11
I2
sg12
I5
sg13
I0
sg14
I1
sg45
I0
sg15
I0
ssg16
I726942201
ssI2
(dp355
g6
(dp356
V10
p357
I0
sg8
I68
sg9
I12
sg10
I29
sg11
I2
sg12
I5
sg13
I0
sg14
I1
sg45
I0
sg15
I0
ssg16
I110566413
ssI4
(dp358
g6
(dp359
V10
p360
I0
sg8
I67
sg9
I11
sg10
I28
sg11
I2
sg12
I5
sg13
I0
sg14
I1
sg45
I0
sg15
I0
ssg16
I177376558
ssI8
(dp361
g6
(dp362
V10
p363
I0
sg8
I68
sg9
I12
sg10
I28
sg11
I2
sg12
I5
sg13
I0
sg14
I1
sg45
I0
sg15
I0
ssg16
I258400813
ssI16
(dp364
g6
(dp365
V10
p366
I0
sg8
I67
sg9
I12
sg10
I28
sg11
I2
sg12
I5
sg13
I0
sg14
I1
sg45
I0
sg15
I0
ssg16
I450318016
sssssS'level-delete-by-ratio-2_3'
p367
(dp368
I256
(dp369
I30
(dp370
I64
(dp371
g6
(dp372
g8
I17
sg9
I3
sg10
I7
sg11
I0
sg12
I1
sg13
I0
sg14
I0
sg15
I0
ssg16
I1049266173
ssI32
(dp373
g6
(dp374
g8
I16
sg9
I3
sg10
I7
sg11
I0
sg12
I1
sg13
I0
sg14
I0
sg15
I0
ssg16
I815387469
ssI2
(dp375
g6
(dp376
g8
I17
sg9
I2
sg10
I7
sg11
I0
sg12
I1
sg13
I0
sg14
I0
sg15
I0
ssg16
I149227428
ssI4
(dp377
g6
(dp378
g8
I17
sg9
I3
sg10
I7
sg11
I0
sg12
I1
sg13
I0
sg14
I0
sg15
I0
ssg16
I239460361
ssI8
(dp379
g6
(dp380
g8
I17
sg9
I3
sg10
I7
sg11
I0
sg12
I1
sg13
I0
sg14
I0
sg15
I0
ssg16
I330503161
ssI16
(dp381
g6
(dp382
g8
I16
sg9
I3
sg10
I7
sg11
I0
sg12
I1
sg13
I0
sg14
I0
sg15
I0
ssg16
I555782049
sssI70
(dp383
I64
(dp384
g6
(dp385
g8
I16
sg9
I3
sg10
I7
sg11
I0
sg12
I1
sg13
I0
sg14
I0
sg15
I0
ssg16
I850376451
ssI32
(dp386
g6
(dp387
g8
I17
sg9
I3
sg10
I7
sg11
I0
sg12
I1
sg13
I0
sg14
I0
sg15
I0
ssg16
I670724498
ssI2
(dp388
g6
(dp389
g8
I17
sg9
I3
sg10
I7
sg11
I0
sg12
I1
sg13
I0
sg14
I0
sg15
I0
ssg16
I127152471
ssI4
(dp390
g6
(dp391
g8
I16
sg9
I3
sg10
I7
sg11
I0
sg12
I1
sg13
I0
sg14
I0
sg15
I0
ssg16
I196705570
ssI8
(dp392
g6
(dp393
g8
I17
sg9
I3
sg10
I7
sg11
I0
sg12
I1
sg13
I0
sg14
I0
sg15
I0
ssg16
I275048061
ssI16
(dp394
g6
(dp395
g8
I16
sg9
I3
sg10
I7
sg11
I0
sg12
I1
sg13
I0
sg14
I0
sg15
I0
ssg16
I451734869
ssssI1024
(dp396
I30
(dp397
I64
(dp398
g6
(dp399
V10
p400
I0
sg8
I68
sg9
I11
sg10
I28
sg11
I2
sg12
I5
sg13
I0
sg14
I1
sg45
I0
sg15
I0
ssg16
I1294430269
ssI32
(dp401
g6
(dp402
V10
p403
I0
sg8
I68
sg9
I11
sg10
I28
sg11
I2
sg12
I5
sg13
I0
sg14
I1
sg45
I0
sg15
I0
ssg16
I850323306
ssI2
(dp404
g6
(dp405
V10
p406
I0
sg8
I68
sg9
I12
sg10
I29
sg11
I2
sg12
I5
sg13
I0
sg14
I1
sg45
I0
sg15
I0
ssg16
I122872736
ssI4
(dp407
g6
(dp408
V10
p409
I0
sg8
I68
sg9
I12
sg10
I29
sg11
I2
sg12
I5
sg13
I0
sg14
I1
sg45
I0
sg15
I0
ssg16
I205385252
ssI8
(dp410
g6
(dp411
V10
p412
I0
sg8
I68
sg9
I12
sg10
I28
sg11
I2
sg12
I5
sg13
I0
sg14
I1
sg45
I0
sg15
I0
ssg16
I299574833
ssI16
(dp413
g6
(dp414
V10
p415
I0
sg8
I68
sg9
I12
sg10
I29
sg11
I2
sg12
I5
sg13
I0
sg14
I1
sg45
I0
sg15
I0
ssg16
I515655287
sssI70
(dp416
I64
(dp417
g6
(dp418
V10
p419
I0
sg8
I67
sg9
I12
sg10
I28
sg11
I2
sg12
I5
sg13
I0
sg14
I1
sg45
I0
sg15
I0
ssg16
I1073707259
ssI32
(dp420
g6
(dp421
V10
p422
I0
sg8
I68
sg9
I12
sg10
I29
sg11
I2
sg12
I5
sg13
I0
sg14
I1
sg45
I0
sg15
I0
ssg16
I717835494
ssI2
(dp423
g6
(dp424
V10
p425
I0
sg8
I68
sg9
I12
sg10
I28
sg11
I2
sg12
I5
sg13
I0
sg14
I1
sg45
I0
sg15
I0
ssg16
I109952758
ssI4
(dp426
g6
(dp427
V10
p428
I0
sg8
I68
sg9
I11
sg10
I29
sg11
I2
sg12
I5
sg13
I0
sg14
I1
sg45
I0
sg15
I0
ssg16
I174517101
ssI8
(dp429
g6
(dp430
V10
p431
I0
sg8
I68
sg9
I12
sg10
I29
sg11
I2
sg12
I5
sg13
I0
sg14
I1
sg45
I0
sg15
I0
ssg16
I255822815
ssI16
(dp432
g6
(dp433
V10
p434
I0
sg8
I67
sg9
I12
sg10
I28
sg11
I2
sg12
I5
sg13
I0
sg14
I1
sg45
I0
sg15
I0
ssg16
I443327784
sssssS'many-skiplists'
p435
(dp436
I512
(dp437
I60
(dp438
I64
(dp439
g153
(dp440
g155
I0
sg156
I0
sg157
I0
sg159
I0
ssg164
I799993542
ssI32
(dp441
g153
(dp442
g155
I0
sg156
I0
sg157
I0
sg159
I0
ssg164
I508639471
ssI2
(dp443
g153
(dp444
g155
I1
sg156
I0
sg157
I0
sg159
I0
ssg164
I60829998
ssI4
(dp445
g153
(dp446
g155
I1
sg156
I0
sg157
I0
sg159
I0
ssg164
I98358674
ssI8
(dp447
g153
(dp448
g155
I1
sg156
I0
sg157
I0
sg159
I0
ssg164
I170042409
ssI16
(dp449
g153
(dp450
g155
I0
sg156
I0
sg157
I0
sg159
I0
ssg164
I305853061
sssI30
(dp451
I64
(dp452
g153
(dp453
g155
I0
sg156
I0
sg157
I0
sg159
I0
ssg164
I974269738
ssI32
(dp454
g153
(dp455
g155
I0
sg156
I0
sg157
I0
sg159
I0
ssg164
I608030326
ssI2
(dp456
g153
(dp457
g155
I1
sg156
I0
sg157
I0
sg159
I0
ssg164
I75304125
ssI4
(dp458
g153
(dp459
g155
I1
sg156
I0
sg157
I0
sg159
I0
ssg164
I121061918
ssI8
(dp460
g153
(dp461
g155
I1
sg156
I0
sg157
I0
sg159
I0
ssg164
I207054621
ssI16
(dp462
g153
(dp463
g155
I0
sg156
I0
sg157
I0
sg159
I0
ssg164
I369172781
ssssI65536
(dp464
I60
(dp465
I64
(dp466
g153
(dp467
V11
p468
I0
sV10
p469
I0
sg155
I135
sg156
I23
sg157
I56
sg158
I5
sg159
I10
sg160
I1
sg161
I2
sg162
I0
sg163
I0
ssg164
I312707833
ssI32
(dp470
g153
(dp471
V11
p472
I0
sV10
p473
I0
sg155
I136
sg156
I25
sg157
I57
sg158
I5
sg159
I11
sg160
I1
sg161
I2
sg162
I0
sg163
I0
ssg164
I265436907
ssI2
(dp474
g153
(dp475
V11
p476
I0
sV10
p477
I0
sg155
I137
sg156
I24
sg157
I58
sg158
I5
sg159
I11
sg160
I1
sg161
I2
sg162
I0
sg163
I0
ssg164
I29499557
ssI4
(dp478
g153
(dp479
V11
p480
I0
sV10
p481
I0
sg155
I136
sg156
I24
sg157
I58
sg158
I5
sg159
I10
sg160
I1
sg161
I2
sg162
I0
sg163
I0
ssg164
I53114368
ssI8
(dp482
g153
(dp483
V11
p484
I0
sV10
p485
I0
sg155
I135
sg156
I23
sg157
I56
sg158
I5
sg159
I10
sg160
I1
sg161
I2
sg162
I0
sg163
I0
ssg164
I93872221
ssI16
(dp486
g153
(dp487
V11
p488
I0
sV10
p489
I0
sg155
I136
sg156
I23
sg157
I57
sg158
I5
sg159
I10
sg160
I1
sg161
I2
sg162
I0
sg163
I0
ssg164
I162665884
sssI30
(dp490
I64
(dp491
g153
(dp492
V11
p493
I0
sV10
p494
I0
sg155
I136
sg156
I24
sg157
I58
sg158
I5
sg159
I10
sg160
I1
sg161
I2
sg162
I0
sg163
I0
ssg164
I441366328
ssI32
(dp495
g153
(dp496
V11
p497
I0
sV10
p498
I0
sg155
I136
sg156
I24
sg157
I57
sg158
I5
sg159
I10
sg160
I1
sg161
I2
sg162
I0
sg163
I0
ssg164
I317111952
ssI2
(dp499
g153
(dp500
V11
p501
I0
sV10
p502
I0
sg155
I136
sg156
I23
sg157
I57
sg158
I5
sg159
I10
sg160
I1
sg161
I2
sg162
I0
sg163
I0
ssg164
I33286828
ssI4
(dp503
g153
(dp504
V11
p505
I0
sV10
p506
I0
sg155
I135
sg156
I24
sg157
I57
sg158
I5
sg159
I10
sg160
I1
sg161
I2
sg162
I0
sg163
I0
ssg164
I61155925
ssI8
(dp507
g153
(dp508
V11
p509
I0
sV10
p510
I0
sg155
I139
sg156
I24
sg157
I57
sg158
I5
sg159
I11
sg160
I1
sg161
I2
sg162
I0
sg163
I0
ssg164
I109395470
ssI16
(dp511
g153
(dp512
V11
p513
I0
sV10
p514
I0
sg155
I135
sg156
I24
sg157
I56
sg158
I5
sg159
I10
sg160
I1
sg161
I2
sg162
I0
sg163
I0
ssg164
I189216794
sssssS'originl-rotating-skiplist'
p515
(dp516
I256
(dp517
I30
(dp518
I64
(dp519
g6
(dp520
g8
I17
sg9
I3
sg10
I7
sg11
I0
sg12
I1
sg13
I0
sg14
I0
sg15
I0
ssg16
I1055259706
ssI32
(dp521
g6
(dp522
g8
I16
sg9
I3
sg10
I7
sg11
I0
sg12
I1
sg13
I0
sg14
I0
sg15
I0
ssg16
I811369942
ssI2
(dp523
g6
(dp524
g8
I17
sg9
I3
sg10
I7
sg11
I0
sg12
I1
sg13
I0
sg14
I0
sg15
I0
ssg16
I147038191
ssI4
(dp525
g6
(dp526
g8
I16
sg9
I3
sg10
I7
sg11
I0
sg12
I1
sg13
I0
sg14
I0
sg15
I0
ssg16
I237738187
ssI8
(dp527
g6
(dp528
g8
I17
sg9
I3
sg10
I7
sg11
I0
sg12
I1
sg13
I0
sg14
I0
sg15
I0
ssg16
I333244274
ssI16
(dp529
g6
(dp530
g8
I17
sg9
I3
sg10
I7
sg11
I0
sg12
I1
sg13
I0
sg14
I0
sg15
I0
ssg16
I561886448
sssI70
(dp531
I64
(dp532
g6
(dp533
g8
I16
sg9
I3
sg10
I7
sg11
I0
sg12
I1
sg13
I0
sg14
I0
sg15
I0
ssg16
I845583617
ssI32
(dp534
g6
(dp535
g8
I17
sg9
I3
sg10
I7
sg11
I0
sg12
I1
sg13
I0
sg14
I0
sg15
I0
ssg16
I672783476
ssI2
(dp536
g6
(dp537
g8
I17
sg9
I3
sg10
I7
sg11
I0
sg12
I1
sg13
I0
sg14
I0
sg15
I0
ssg16
I128842190
ssI4
(dp538
g6
(dp539
g8
I17
sg9
I2
sg10
I7
sg11
I0
sg12
I1
sg13
I0
sg14
I0
sg15
I0
ssg16
I197801381
ssI8
(dp540
g6
(dp541
g8
I17
sg9
I3
sg10
I7
sg11
I0
sg12
I1
sg13
I0
sg14
I0
sg15
I0
ssg16
I272991301
ssI16
(dp542
g6
(dp543
g8
I17
sg9
I3
sg10
I7
sg11
I0
sg12
I1
sg13
I0
sg14
I0
sg15
I0
ssg16
I458911777
ssssI1024
(dp544
I30
(dp545
I64
(dp546
g6
(dp547
V10
p548
I0
sg8
I68
sg9
I12
sg10
I30
sg11
I2
sg12
I5
sg13
I0
sg14
I1
sg45
I0
sg15
I0
ssg16
I1302630419
ssI32
(dp549
g6
(dp550
V10
p551
I0
sg8
I68
sg9
I12
sg10
I29
sg11
I2
sg12
I5
sg13
I0
sg14
I1
sg45
I0
sg15
I0
ssg16
I846011404
ssI2
(dp552
g6
(dp553
V10
p554
I0
sg8
I67
sg9
I12
sg10
I29
sg11
I2
sg12
I5
sg13
I0
sg14
I1
sg45
I0
sg15
I0
ssg16
I122628341
ssI4
(dp555
g6
(dp556
V10
p557
I0
sg8
I68
sg9
I12
sg10
I28
sg11
I2
sg12
I5
sg13
I0
sg14
I1
sg45
I0
sg15
I0
ssg16
I206310507
ssI8
(dp558
g6
(dp559
V10
p560
I0
sg8
I68
sg9
I12
sg10
I29
sg11
I2
sg12
I5
sg13
I0
sg14
I1
sg45
I0
sg15
I0
ssg16
I302001661
ssI16
(dp561
g6
(dp562
V10
p563
I0
sg8
I68
sg9
I12
sg10
I29
sg11
I2
sg12
I5
sg13
I0
sg14
I1
sg45
I0
sg15
I0
ssg16
I515529085
sssI70
(dp564
I64
(dp565
g6
(dp566
V10
p567
I0
sg8
I68
sg9
I12
sg10
I29
sg11
I2
sg12
I5
sg13
I0
sg14
I1
sg45
I0
sg15
I0
ssg16
I1074245053
ssI32
(dp568
g6
(dp569
V10
p570
I0
sg8
I67
sg9
I12
sg10
I28
sg11
I2
sg12
I5
sg13
I0
sg14
I1
sg45
I0
sg15
I0
ssg16
I724167446
ssI2
(dp571
g6
(dp572
V10
p573
I0
sg8
I68
sg9
I12
sg10
I29
sg11
I2
sg12
I5
sg13
I0
sg14
I1
sg45
I0
sg15
I0
ssg16
I108567396
ssI4
(dp574
g6
(dp575
V10
p576
I0
sg8
I68
sg9
I12
sg10
I28
sg11
I2
sg12
I5
sg13
I0
sg14
I1
sg45
I0
sg15
I0
ssg16
I174790807
ssI8
(dp577
g6
(dp578
V10
p579
I0
sg8
I67
sg9
I12
sg10
I29
sg11
I2
sg12
I5
sg13
I0
sg14
I1
sg45
I0
sg15
I0
ssg16
I255593454
ssI16
(dp580
g6
(dp581
V10
p582
I0
sg8
I67
sg9
I11
sg10
I27
sg11
I2
sg12
I5
sg13
I0
sg14
I1
sg45
I0
sg15
I0
ssg16
I443211995
ssssI512
(dp583
I60
(dp584
I64
(dp585
g153
(dp586
g155
I37
sg156
I6
sg157
I15
sg158
I1
sg159
I2
sg160
I0
sg161
I0
sg162
I0
sg163
I0
ssg164
I642702511
ssI32
(dp587
g153
(dp588
g155
I37
sg156
I6
sg157
I16
sg158
I1
sg159
I2
sg160
I0
sg161
I0
sg162
I0
sg163
I0
ssg164
I471748930
ssI2
(dp589
g153
(dp590
g155
I36
sg156
I6
sg157
I15
sg158
I1
sg159
I2
sg160
I0
sg161
I0
sg162
I0
sg163
I0
ssg164
I77671331
ssI4
(dp591
g153
(dp592
g155
I36
sg156
I6
sg157
I15
sg158
I1
sg159
I2
sg160
I0
sg161
I0
sg162
I0
sg163
I0
ssg164
I123399489
ssI8
(dp593
g153
(dp594
g155
I37
sg156
I7
sg157
I16
sg158
I1
sg159
I3
sg160
I0
sg161
I0
sg162
I0
sg163
I0
ssg164
I176527025
ssI16
(dp595
g153
(dp596
g155
I36
sg156
I6
sg157
I15
sg158
I1
sg159
I2
sg160
I0
sg161
I0
sg162
I0
sg163
I0
ssg164
I302451437
sssI30
(dp597
I64
(dp598
g153
(dp599
g155
I37
sg156
I6
sg157
I16
sg158
I1
sg159
I2
sg160
I0
sg161
I0
sg162
I0
sg163
I0
ssg164
I794030835
ssI32
(dp600
g153
(dp601
g155
I36
sg156
I6
sg157
I15
sg158
I1
sg159
I2
sg160
I0
sg161
I0
sg162
I0
sg163
I0
ssg164
I565334844
ssI2
(dp602
g153
(dp603
g155
I37
sg156
I6
sg157
I16
sg158
I1
sg159
I2
sg160
I0
sg161
I0
sg162
I0
sg163
I0
ssg164
I89652660
ssI4
(dp604
g153
(dp605
g155
I36
sg156
I6
sg157
I16
sg158
I1
sg159
I3
sg160
I0
sg161
I0
sg162
I0
sg163
I0
ssg164
I148108240
ssI8
(dp606
g153
(dp607
g155
I36
sg156
I6
sg157
I15
sg158
I1
sg159
I3
sg160
I0
sg161
I0
sg162
I0
sg163
I0
ssg164
I209200263
ssI16
(dp608
g153
(dp609
g155
I36
sg156
I6
sg157
I15
sg158
I1
sg159
I2
sg160
I0
sg161
I0
sg162
I0
sg163
I0
ssg164
I353018823
ssssI65536
(dp610
I60
(dp611
I64
(dp612
g153
(dp613
V11
p614
I2
sV10
p615
I5
sV13
p616
I0
sV12
p617
I1
sV15
p618
I0
sV14
p619
I0
sV16
p620
I0
sg155
I4704
sg156
I843
sg157
I2010
sg158
I171
sg159
I364
sg160
I42
sg161
I85
sg162
I10
sg163
I21
ssg164
I606727865
ssI32
(dp621
g153
(dp622
V11
p623
I2
sV10
p624
I5
sV13
p625
I0
sV12
p626
I1
sV15
p627
I0
sV14
p628
I0
sV16
p629
I0
sg155
I4707
sg156
I842
sg157
I2006
sg158
I171
sg159
I360
sg160
I42
sg161
I85
sg162
I10
sg163
I21
ssg164
I351034032
ssI2
(dp630
g153
(dp631
V11
p632
I2
sV10
p633
I5
sV13
p634
I0
sV12
p635
I1
sV15
p636
I0
sV14
p637
I0
sV16
p638
I0
sg155
I4705
sg156
I841
sg157
I2002
sg158
I171
sg159
I361
sg160
I42
sg161
I85
sg162
I10
sg163
I21
ssg164
I34525729
ssI4
(dp639
g153
(dp640
V11
p641
I2
sV10
p642
I5
sV13
p643
I0
sV12
p644
I1
sV15
p645
I0
sV14
p646
I0
sV16
p647
I0
sg155
I4701
sg156
I837
sg157
I1995
sg158
I171
sg159
I361
sg160
I42
sg161
I85
sg162
I10
sg163
I21
ssg164
I62545362
ssI8
(dp648
g153
(dp649
V11
p650
I2
sV10
p651
I5
sV13
p652
I0
sV12
p653
I1
sV15
p654
I0
sV14
p655
I0
sV16
p656
I0
sg155
I4704
sg156
I843
sg157
I2001
sg158
I171
sg159
I362
sg160
I42
sg161
I85
sg162
I10
sg163
I21
ssg164
I108174659
ssI16
(dp657
g153
(dp658
V11
p659
I2
sV10
p660
I5
sV13
p661
I0
sV12
p662
I1
sV15
p663
I0
sV14
p664
I0
sV16
p665
I0
sg155
I4711
sg156
I845
sg157
I2013
sg158
I171
sg159
I362
sg160
I42
sg161
I85
sg162
I10
sg163
I21
ssg164
I196990203
sssI30
(dp666
I64
(dp667
g153
(dp668
V11
p669
I2
sV10
p670
I5
sV13
p671
I0
sV12
p672
I1
sV15
p673
I0
sV14
p674
I0
sV16
p675
I0
sg155
I4708
sg156
I844
sg157
I2004
sg158
I171
sg159
I363
sg160
I42
sg161
I85
sg162
I10
sg163
I21
ssg164
I658638405
ssI32
(dp676
g153
(dp677
V11
p678
I2
sV10
p679
I5
sV13
p680
I0
sV12
p681
I1
sV15
p682
I0
sV14
p683
I0
sV16
p684
I0
sg155
I4713
sg156
I842
sg157
I1999
sg158
I171
sg159
I363
sg160
I42
sg161
I85
sg162
I10
sg163
I21
ssg164
I378700528
ssI2
(dp685
g153
(dp686
V11
p687
I2
sV10
p688
I5
sV13
p689
I0
sV12
p690
I1
sV15
p691
I0
sV14
p692
I0
sV16
p693
I0
sg155
I4690
sg156
I837
sg157
I1991
sg158
I171
sg159
I358
sg160
I42
sg161
I85
sg162
I10
sg163
I21
ssg164
I37410797
ssI4
(dp694
g153
(dp695
V11
p696
I2
sV10
p697
I5
sV13
p698
I0
sV12
p699
I1
sV15
p700
I0
sV14
p701
I0
sV16
p702
I0
sg155
I4701
sg156
I839
sg157
I2002
sg158
I171
sg159
I360
sg160
I42
sg161
I85
sg162
I10
sg163
I21
ssg164
I68669999
ssI8
(dp703
g153
(dp704
V11
p705
I2
sV10
p706
I5
sV13
p707
I0
sV12
p708
I1
sV15
p709
I0
sV14
p710
I0
sV16
p711
I0
sg155
I4705
sg156
I841
sg157
I2004
sg158
I171
sg159
I360
sg160
I42
sg161
I85
sg162
I10
sg163
I21
ssg164
I118273720
ssI16
(dp712
g153
(dp713
V11
p714
I2
sV10
p715
I5
sV13
p716
I0
sV12
p717
I1
sV15
p718
I0
sV14
p719
I0
sV16
p720
I0
sg155
I4704
sg156
I839
sg157
I2001
sg158
I170
sg159
I361
sg160
I42
sg161
I85
sg162
I10
sg163
I21
ssg164
I212073142
sssssS'background_no_sleep'
p721
(dp722
I512
(dp723
I60
(dp724
I64
(dp725
g153
(dp726
g155
I36
sg156
I6
sg157
I15
sg158
I1
sg159
I2
sg160
I0
sg161
I0
sg162
I0
sg163
I0
ssg164
I638182927
ssI32
(dp727
g153
(dp728
g155
I36
sg156
I6
sg157
I16
sg158
I1
sg159
I2
sg160
I0
sg161
I0
sg162
I0
sg163
I0
ssg164
I474183466
ssI2
(dp729
g153
(dp730
g155
I37
sg156
I6
sg157
I15
sg158
I1
sg159
I2
sg160
I0
sg161
I0
sg162
I0
sg163
I0
ssg164
I77703326
ssI4
(dp731
g153
(dp732
g155
I37
sg156
I6
sg157
I15
sg158
I1
sg159
I2
sg160
I0
sg161
I0
sg162
I0
sg163
I0
ssg164
I124041440
ssI8
(dp733
g153
(dp734
g155
I36
sg156
I6
sg157
I15
sg158
I1
sg159
I2
sg160
I0
sg161
I0
sg162
I0
sg163
I0
ssg164
I175578024
ssI16
(dp735
g153
(dp736
g155
I36
sg156
I6
sg157
I15
sg158
I1
sg159
I2
sg160
I0
sg161
I0
sg162
I0
sg163
I0
ssg164
I302067538
sssI30
(dp737
I64
(dp738
g153
(dp739
g155
I36
sg156
I6
sg157
I15
sg158
I1
sg159
I2
sg160
I0
sg161
I0
sg162
I0
sg163
I0
ssg164
I793135543
ssI32
(dp740
g153
(dp741
g155
I36
sg156
I6
sg157
I15
sg158
I1
sg159
I2
sg160
I0
sg161
I0
sg162
I0
sg163
I0
ssg164
I573165985
ssI2
(dp742
g153
(dp743
g155
I37
sg156
I6
sg157
I15
sg158
I1
sg159
I2
sg160
I0
sg161
I0
sg162
I0
sg163
I0
ssg164
I88986331
ssI4
(dp744
g153
(dp745
g155
I36
sg156
I6
sg157
I15
sg158
I1
sg159
I2
sg160
I0
sg161
I0
sg162
I0
sg163
I0
ssg164
I148065476
ssI8
(dp746
g153
(dp747
g155
I36
sg156
I6
sg157
I15
sg158
I1
sg159
I2
sg160
I0
sg161
I0
sg162
I0
sg163
I0
ssg164
I208728925
ssI16
(dp748
g153
(dp749
g155
I37
sg156
I6
sg157
I16
sg158
I1
sg159
I2
sg160
I0
sg161
I0
sg162
I0
sg163
I0
ssg164
I358788808
ssssI65536
(dp750
I60
(dp751
I64
(dp752
g153
(dp753
V11
p754
I2
sV10
p755
I5
sV13
p756
I0
sV12
p757
I1
sV15
p758
I0
sV14
p759
I0
sV16
p760
I0
sg155
I4709
sg156
I843
sg157
I2004
sg158
I171
sg159
I361
sg160
I42
sg161
I85
sg162
I10
sg163
I21
ssg164
I603748927
ssI32
(dp761
g153
(dp762
V11
p763
I2
sV10
p764
I5
sV13
p765
I0
sV12
p766
I1
sV15
p767
I0
sV14
p768
I0
sV16
p769
I0
sg155
I4707
sg156
I841
sg157
I2001
sg158
I171
sg159
I359
sg160
I42
sg161
I85
sg162
I10
sg163
I21
ssg164
I350553332
ssI2
(dp770
g153
(dp771
V11
p772
I2
sV10
p773
I5
sV13
p774
I0
sV12
p775
I1
sV15
p776
I0
sV14
p777
I0
sV16
p778
I0
sg155
I4698
sg156
I833
sg157
I1994
sg158
I171
sg159
I358
sg160
I42
sg161
I85
sg162
I10
sg163
I21
ssg164
I34335959
ssI4
(dp779
g153
(dp780
V11
p781
I2
sV10
p782
I5
sV13
p783
I0
sV12
p784
I1
sV15
p785
I0
sV14
p786
I0
sV16
p787
I0
sg155
I4696
sg156
I835
sg157
I1993
sg158
I171
sg159
I360
sg160
I42
sg161
I85
sg162
I10
sg163
I21
ssg164
I62996381
ssI8
(dp788
g153
(dp789
V11
p790
I2
sV10
p791
I5
sV13
p792
I0
sV12
p793
I1
sV15
p794
I0
sV14
p795
I0
sV16
p796
I0
sg155
I4701
sg156
I840
sg157
I1997
sg158
I171
sg159
I359
sg160
I42
sg161
I85
sg162
I10
sg163
I21
ssg164
I108336574
ssI16
(dp797
g153
(dp798
V11
p799
I2
sV10
p800
I5
sV13
p801
I0
sV12
p802
I1
sV15
p803
I0
sV14
p804
I0
sV16
p805
I0
sg155
I4696
sg156
I840
sg157
I1998
sg158
I171
sg159
I360
sg160
I42
sg161
I85
sg162
I10
sg163
I21
ssg164
I194113770
sssI30
(dp806
I64
(dp807
g153
(dp808
V11
p809
I2
sV10
p810
I5
sV13
p811
I0
sV12
p812
I1
sV15
p813
I0
sV14
p814
I0
sV16
p815
I0
sg155
I4702
sg156
I839
sg157
I1998
sg158
I171
sg159
I361
sg160
I42
sg161
I85
sg162
I10
sg163
I21
ssg164
I652927490
ssI32
(dp816
g153
(dp817
V11
p818
I2
sV10
p819
I5
sV13
p820
I0
sV12
p821
I1
sV15
p822
I0
sV14
p823
I0
sV16
p824
I0
sg155
I4703
sg156
I840
sg157
I2003
sg158
I171
sg159
I362
sg160
I42
sg161
I85
sg162
I10
sg163
I21
ssg164
I376635844
ssI2
(dp825
g153
(dp826
V11
p827
I2
sV10
p828
I5
sV13
p829
I0
sV12
p830
I1
sV15
p831
I0
sV14
p832
I0
sV16
p833
I0
sg155
I4695
sg156
I837
sg157
I1995
sg158
I171
sg159
I359
sg160
I42
sg161
I85
sg162
I10
sg163
I21
ssg164
I37168927
ssI4
(dp834
g153
(dp835
V11
p836
I2
sV10
p837
I5
sV13
p838
I0
sV12
p839
I1
sV15
p840
I0
sV14
p841
I0
sV16
p842
I0
sg155
I4700
sg156
I837
sg157
I1997
sg158
I170
sg159
I359
sg160
I42
sg161
I85
sg162
I10
sg163
I21
ssg164
I67849158
ssI8
(dp843
g153
(dp844
V11
p845
I2
sV10
p846
I5
sV13
p847
I0
sV12
p848
I1
sV15
p849
I0
sV14
p850
I0
sV16
p851
I0
sg155
I4706
sg156
I841
sg157
I1999
sg158
I171
sg159
I361
sg160
I42
sg161
I85
sg162
I10
sg163
I21
ssg164
I118613252
ssI16
(dp852
g153
(dp853
V11
p854
I2
sV10
p855
I5
sV13
p856
I0
sV12
p857
I1
sV15
p858
I0
sV14
p859
I0
sV16
p860
I0
sg155
I4698
sg156
I840
sg157
I1998
sg158
I171
sg159
I360
sg160
I42
sg161
I85
sg162
I10
sg163
I21
ssg164
I208559507
sssssS'max-level-30'
p861
(dp862
I256
(dp863
I30
(dp864
I64
(dp865
g6
(dp866
g8
I17
sg9
I3
sg10
I7
sg11
I0
sg12
I1
sg13
I0
sg14
I0
sg15
I0
ssg16
I1053785734
ssI32
(dp867
g6
(dp868
g8
I16
sg9
I2
sg10
I7
sg11
I0
sg12
I1
sg13
I0
sg14
I0
sg15
I0
ssg16
I813061418
ssI2
(dp869
g6
(dp870
g8
I16
sg9
I2
sg10
I7
sg11
I0
sg12
I1
sg13
I0
sg14
I0
sg15
I0
ssg16
I145691235
ssI4
(dp871
g6
(dp872
g8
I17
sg9
I3
sg10
I7
sg11
I0
sg12
I1
sg13
I0
sg14
I0
sg15
I0
ssg16
I235970451
ssI8
(dp873
g6
(dp874
g8
I16
sg9
I3
sg10
I7
sg11
I0
sg12
I1
sg13
I0
sg14
I0
sg15
I0
ssg16
I327422853
ssI16
(dp875
g6
(dp876
g8
I17
sg9
I3
sg10
I7
sg11
I0
sg12
I1
sg13
I0
sg14
I0
sg15
I0
ssg16
I543930389
sssI70
(dp877
I64
(dp878
g6
(dp879
g8
I17
sg9
I3
sg10
I7
sg11
I0
sg12
I1
sg13
I0
sg14
I0
sg15
I0
ssg16
I853251616
ssI32
(dp880
g6
(dp881
g8
I17
sg9
I3
sg10
I7
sg11
I0
sg12
I1
sg13
I0
sg14
I0
sg15
I0
ssg16
I665165413
ssI2
(dp882
g6
(dp883
g8
I16
sg9
I3
sg10
I7
sg11
I0
sg12
I1
sg13
I0
sg14
I0
sg15
I0
ssg16
I124607891
ssI4
(dp884
g6
(dp885
g8
I16
sg9
I2
sg10
I7
sg11
I0
sg12
I1
sg13
I0
sg14
I0
sg15
I0
ssg16
I193326913
ssI8
(dp886
g6
(dp887
g8
I17
sg9
I2
sg10
I6
sg11
I0
sg12
I1
sg13
I0
sg14
I0
sg15
I0
ssg16
I270788663
ssI16
(dp888
g6
(dp889
g8
I16
sg9
I3
sg10
I7
sg11
I0
sg12
I1
sg13
I0
sg14
I0
sg15
I0
ssg16
I452076107
ssssI1024
(dp890
I30
(dp891
I64
(dp892
g6
(dp893
V10
p894
I0
sg8
I67
sg9
I11
sg10
I29
sg11
I2
sg12
I5
sg13
I0
sg14
I1
sg45
I0
sg15
I0
ssg16
I1283153848
ssI32
(dp895
g6
(dp896
V10
p897
I0
sg8
I68
sg9
I12
sg10
I29
sg11
I2
sg12
I5
sg13
I0
sg14
I1
sg45
I0
sg15
I0
ssg16
I832030650
ssI2
(dp898
g6
(dp899
V10
p900
I0
sg8
I68
sg9
I12
sg10
I29
sg11
I2
sg12
I5
sg13
I0
sg14
I1
sg45
I0
sg15
I0
ssg16
I119499017
ssI4
(dp901
g6
(dp902
V10
p903
I0
sg8
I68
sg9
I12
sg10
I29
sg11
I2
sg12
I5
sg13
I0
sg14
I1
sg45
I0
sg15
I0
ssg16
I200720198
ssI8
(dp904
g6
(dp905
V10
p906
I0
sg8
I68
sg9
I12
sg10
I29
sg11
I2
sg12
I5
sg13
I0
sg14
I1
sg45
I0
sg15
I0
ssg16
I294183158
ssI16
(dp907
g6
(dp908
V10
p909
I0
sg8
I68
sg9
I12
sg10
I29
sg11
I2
sg12
I5
sg13
I0
sg14
I1
sg45
I0
sg15
I0
ssg16
I510971588
sssI70
(dp910
I64
(dp911
g6
(dp912
V10
p913
I0
sg8
I68
sg9
I12
sg10
I29
sg11
I2
sg12
I5
sg13
I0
sg14
I1
sg45
I0
sg15
I0
ssg16
I1054825279
ssI32
(dp914
g6
(dp915
V10
p916
I0
sg8
I67
sg9
I12
sg10
I29
sg11
I2
sg12
I5
sg13
I0
sg14
I1
sg45
I0
sg15
I0
ssg16
I705925337
ssI2
(dp917
g6
(dp918
V10
p919
I0
sg8
I68
sg9
I12
sg10
I28
sg11
I2
sg12
I5
sg13
I0
sg14
I1
sg45
I0
sg15
I0
ssg16
I105082670
ssI4
(dp920
g6
(dp921
V10
p922
I0
sg8
I68
sg9
I12
sg10
I29
sg11
I2
sg12
I5
sg13
I0
sg14
I1
sg45
I0
sg15
I0
ssg16
I170875436
ssI8
(dp923
g6
(dp924
V10
p925
I0
sg8
I67
sg9
I11
sg10
I29
sg11
I2
sg12
I5
sg13
I0
sg14
I1
sg45
I0
sg15
I0
ssg16
I249992224
ssI16
(dp926
g6
(dp927
V10
p928
I0
sg8
I67
sg9
I12
sg10
I28
sg11
I2
sg12
I5
sg13
I0
sg14
I1
sg45
I0
sg15
I0
ssg16
I437225925
sssssS'background_sleep_depends_threads'
p929
(dp930
I512
(dp931
I60
(dp932
I64
(dp933
g153
(dp934
g155
I36
sg156
I6
sg157
I15
sg158
I1
sg159
I2
sg160
I0
sg161
I0
sg162
I0
sg163
I0
ssg164
I645224670
ssI32
(dp935
g153
(dp936
g155
I36
sg156
I6
sg157
I15
sg158
I1
sg159
I2
sg160
I0
sg161
I0
sg162
I0
sg163
I0
ssg164
I476403472
ssI2
(dp937
g153
(dp938
g155
I36
sg156
I6
sg157
I15
sg158
I1
sg159
I2
sg160
I0
sg161
I0
sg162
I0
sg163
I0
ssg164
I78948556
ssI4
(dp939
g153
(dp940
g155
I36
sg156
I6
sg157
I15
sg158
I1
sg159
I2
sg160
I0
sg161
I0
sg162
I0
sg163
I0
ssg164
I124503692
ssI8
(dp941
g153
(dp942
g155
I36
sg156
I6
sg157
I15
sg158
I1
sg159
I2
sg160
I0
sg161
I0
sg162
I0
sg163
I0
ssg164
I178194218
ssI16
(dp943
g153
(dp944
g155
I36
sg156
I6
sg157
I15
sg158
I1
sg159
I2
sg160
I0
sg161
I0
sg162
I0
sg163
I0
ssg164
I303507005
sssI30
(dp945
I64
(dp946
g153
(dp947
g155
I36
sg156
I6
sg157
I15
sg158
I1
sg159
I2
sg160
I0
sg161
I0
sg162
I0
sg163
I0
ssg164
I795220656
ssI32
(dp948
g153
(dp949
g155
I37
sg156
I6
sg157
I16
sg158
I1
sg159
I2
sg160
I0
sg161
I0
sg162
I0
sg163
I0
ssg164
I566361888
ssI2
(dp950
g153
(dp951
g155
I37
sg156
I6
sg157
I16
sg158
I1
sg159
I2
sg160
I0
sg161
I0
sg162
I0
sg163
I0
ssg164
I89556806
ssI4
(dp952
g153
(dp953
g155
I36
sg156
I6
sg157
I15
sg158
I1
sg159
I2
sg160
I0
sg161
I0
sg162
I0
sg163
I0
ssg164
I147981124
ssI8
(dp954
g153
(dp955
g155
I37
sg156
I6
sg157
I15
sg158
I1
sg159
I2
sg160
I0
sg161
I0
sg162
I0
sg163
I0
ssg164
I210611552
ssI16
(dp956
g153
(dp957
g155
I36
sg156
I6
sg157
I15
sg158
I1
sg159
I2
sg160
I0
sg161
I0
sg162
I0
sg163
I0
ssg164
I359939398
ssssI65536
(dp958
I60
(dp959
I64
(dp960
g153
(dp961
V11
p962
I2
sV10
p963
I5
sV13
p964
I0
sV12
p965
I1
sV15
p966
I0
sV14
p967
I0
sV16
p968
I0
sg155
I4710
sg156
I842
sg157
I2002
sg158
I171
sg159
I361
sg160
I42
sg161
I85
sg162
I10
sg163
I21
ssg164
I606085837
ssI32
(dp969
g153
(dp970
V11
p971
I2
sV10
p972
I5
sV13
p973
I0
sV12
p974
I1
sV15
p975
I0
sV14
p976
I0
sV16
p977
I0
sg155
I4706
sg156
I843
sg157
I2001
sg158
I171
sg159
I363
sg160
I42
sg161
I85
sg162
I10
sg163
I21
ssg164
I351806410
ssI2
(dp978
g153
(dp979
V11
p980
I2
sV10
p981
I5
sV13
p982
I0
sV12
p983
I1
sV15
p984
I0
sV14
p985
I0
sV16
p986
I0
sg155
I4712
sg156
I840
sg157
I2005
sg158
I171
sg159
I362
sg160
I42
sg161
I85
sg162
I10
sg163
I21
ssg164
I34186079
ssI4
(dp987
g153
(dp988
V11
p989
I2
sV10
p990
I5
sV13
p991
I0
sV12
p992
I1
sV15
p993
I0
sV14
p994
I0
sV16
p995
I0
sg155
I4711
sg156
I844
sg157
I2007
sg158
I171
sg159
I363
sg160
I42
sg161
I85
sg162
I10
sg163
I21
ssg164
I64622275
ssI8
(dp996
g153
(dp997
V11
p998
I2
sV10
p999
I5
sV13
p1000
I0
sV12
p1001
I1
sV15
p1002
I0
sV14
p1003
I0
sV16
p1004
I0
sg155
I4712
sg156
I839
sg157
I2003
sg158
I170
sg159
I357
sg160
I42
sg161
I85
sg162
I10
sg163
I21
ssg164
I110835850
ssI16
(dp1005
g153
(dp1006
V11
p1007
I2
sV10
p1008
I5
sV13
p1009
I0
sV12
p1010
I1
sV15
p1011
I0
sV14
p1012
I0
sV16
p1013
I0
sg155
I4703
sg156
I841
sg157
I2001
sg158
I171
sg159
I361
sg160
I42
sg161
I85
sg162
I10
sg163
I21
ssg164
I197879782
sssI30
(dp1014
I64
(dp1015
g153
(dp1016
V11
p1017
I2
sV10
p1018
I5
sV13
p1019
I0
sV12
p1020
I1
sV15
p1021
I0
sV14
p1022
I0
sV16
p1023
I0
sg155
I4706
sg156
I837
sg157
I2004
sg158
I171
sg159
I361
sg160
I42
sg161
I85
sg162
I10
sg163
I21
ssg164
I661668962
ssI32
(dp1024
g153
(dp1025
V11
p1026
I2
sV10
p1027
I5
sV13
p1028
I0
sV12
p1029
I1
sV15
p1030
I0
sV14
p1031
I0
sV16
p1032
I0
sg155
I4707
sg156
I845
sg157
I2007
sg158
I171
sg159
I363
sg160
I42
sg161
I85
sg162
I10
sg163
I21
ssg164
I379552090
ssI2
(dp1033
g153
(dp1034
V11
p1035
I2
sV10
p1036
I5
sV13
p1037
I0
sV12
p1038
I1
sV15
p1039
I0
sV14
p1040
I0
sV16
p1041
I0
sg155
I4704
sg156
I842
sg157
I2003
sg158
I171
sg159
I361
sg160
I42
sg161
I85
sg162
I10
sg163
I21
ssg164
I36402838
ssI4
(dp1042
g153
(dp1043
V11
p1044
I2
sV10
p1045
I5
sV13
p1046
I0
sV12
p1047
I1
sV15
p1048
I0
sV14
p1049
I0
sV16
p1050
I0
sg155
I4707
sg156
I840
sg157
I1997
sg158
I171
sg159
I360
sg160
I42
sg161
I85
sg162
I10
sg163
I21
ssg164
I68489514
ssI8
(dp1051
g153
(dp1052
V11
p1053
I2
sV10
p1054
I5
sV13
p1055
I0
sV12
p1056
I1
sV15
p1057
I0
sV14
p1058
I0
sV16
p1059
I0
sg155
I4704
sg156
I839
sg157
I1999
sg158
I171
sg159
I360
sg160
I42
sg161
I85
sg162
I10
sg163
I21
ssg164
I117631092
ssI16
(dp1060
g153
(dp1061
V11
p1062
I2
sV10
p1063
I5
sV13
p1064
I0
sV12
p1065
I1
sV15
p1066
I0
sV14
p1067
I0
sV16
p1068
I0
sg155
I4711
sg156
I842
sg157
I2002
sg158
I171
sg159
I361
sg160
I42
sg161
I85
sg162
I10
sg163
I21
ssg164
I212580004
sssss.