(dp0
S'first-level-delete-two-three-threshold'
p1
(dp2
I1024
(dp3
I50
(dp4
I64
(dp5
S'nodes'
p6
(dp7
V10
p8
I0
sV1
p9
I88
sV3
p10
I15
sV2
p11
I38
sV5
p12
I3
sV4
p13
I6
sV7
p14
I0
sV6
p15
I1
sV9
p16
I0
sV8
p17
I0
ssS'txs'
p18
I277642695
ssI32
(dp19
g6
(dp20
V10
p21
I0
sg9
I87
sg10
I15
sg11
I37
sg12
I3
sg13
I6
sg14
I0
sg15
I1
sg16
I0
sg17
I0
ssg18
I197928583
ssI2
(dp22
g6
(dp23
V10
p24
I0
sg9
I88
sg10
I15
sg11
I37
sg12
I3
sg13
I6
sg14
I0
sg15
I1
sg16
I0
sg17
I0
ssg18
I30024100
ssI4
(dp25
g6
(dp26
V10
p27
I0
sg9
I88
sg10
I16
sg11
I38
sg12
I3
sg13
I6
sg14
I0
sg15
I1
sg16
I0
sg17
I0
ssg18
I47635930
ssI8
(dp28
g6
(dp29
V10
p30
I0
sg9
I88
sg10
I15
sg11
I37
sg12
I3
sg13
I6
sg14
I0
sg15
I1
sg16
I0
sg17
I0
ssg18
I68971682
ssI16
(dp31
g6
(dp32
V10
p33
I0
sg9
I88
sg10
I15
sg11
I37
sg12
I3
sg13
I6
sg14
I0
sg15
I1
sg16
I0
sg17
I0
ssg18
I121989112
sssI20
(dp34
I64
(dp35
g6
(dp36
V10
p37
I0
sg9
I87
sg10
I15
sg11
I36
sg12
I3
sg13
I6
sg14
I0
sg15
I1
sg16
I0
sg17
I0
ssg18
I402572294
ssI32
(dp38
g6
(dp39
V10
p40
I0
sg9
I89
sg10
I15
sg11
I37
sg12
I3
sg13
I6
sg14
I0
sg15
I1
sg16
I0
sg17
I0
ssg18
I265239661
ssI2
(dp41
g6
(dp42
V10
p43
I0
sg9
I89
sg10
I16
sg11
I37
sg12
I3
sg13
I6
sg14
I0
sg15
I1
sg16
I0
sg17
I0
ssg18
I36460922
ssI4
(dp44
g6
(dp45
V10
p46
I0
sg9
I88
sg10
I15
sg11
I37
sg12
I3
sg13
I6
sg14
I0
sg15
I1
sg16
I0
sg17
I0
ssg18
I63804311
ssI8
(dp47
g6
(dp48
V10
p49
I0
sg9
I87
sg10
I15
sg11
I37
sg12
I3
sg13
I6
sg14
I0
sg15
I1
sg16
I0
sg17
I0
ssg18
I94194635
ssI16
(dp50
g6
(dp51
V10
p52
I0
sg9
I87
sg10
I16
sg11
I37
sg12
I3
sg13
I6
sg14
I0
sg15
I1
sg16
I0
sg17
I0
ssg18
I159619950
ssssI2048
(dp53
I50
(dp54
I64
(dp55
g6
(dp56
V11
p57
I0
sV10
p58
I0
sg9
I176
sg10
I31
sg11
I75
sg12
I6
sg13
I13
sg14
I1
sg15
I3
sg16
I0
sg17
I0
ssg18
I285935381
ssI32
(dp59
g6
(dp60
V11
p61
I0
sV10
p62
I0
sg9
I179
sg10
I33
sg11
I76
sg12
I6
sg13
I13
sg14
I1
sg15
I3
sg16
I0
sg17
I0
ssg18
I195117769
ssI2
(dp63
g6
(dp64
V11
p65
I0
sV10
p66
I0
sg9
I178
sg10
I31
sg11
I75
sg12
I6
sg13
I13
sg14
I1
sg15
I3
sg16
I0
sg17
I0
ssg18
I27576168
ssI4
(dp67
g6
(dp68
V11
p69
I0
sV10
p70
I0
sg9
I177
sg10
I31
sg11
I75
sg12
I6
sg13
I13
sg14
I1
sg15
I3
sg16
I0
sg17
I0
ssg18
I44132168
ssI8
(dp71
g6
(dp72
V11
p73
I0
sV10
p74
I0
sg9
I177
sg10
I31
sg11
I75
sg12
I6
sg13
I13
sg14
I1
sg15
I3
sg16
I0
sg17
I0
ssg18
I67069375
ssI16
(dp75
g6
(dp76
V11
p77
I0
sV10
p78
I0
sg9
I177
sg10
I31
sg11
I76
sg12
I6
sg13
I13
sg14
I1
sg15
I3
sg16
I0
sg17
I0
ssg18
I117313032
sssI20
(dp79
I64
(dp80
g6
(dp81
V11
p82
I0
sV10
p83
I0
sg9
I177
sg10
I31
sg11
I75
sg12
I6
sg13
I13
sg14
I1
sg15
I3
sg16
I0
sg17
I0
ssg18
I399987874
ssI32
(dp84
g6
(dp85
V11
p86
I0
sV10
p87
I0
sg9
I176
sg10
I31
sg11
I75
sg12
I6
sg13
I13
sg14
I1
sg15
I3
sg16
I0
sg17
I0
ssg18
I252645959
ssI2
(dp88
g6
(dp89
V11
p90
I0
sV10
p91
I0
sg9
I175
sg10
I31
sg11
I75
sg12
I6
sg13
I13
sg14
I1
sg15
I3
sg16
I0
sg17
I0
ssg18
I32961546
ssI4
(dp92
g6
(dp93
V11
p94
I0
sV10
p95
I0
sg9
I175
sg10
I30
sg11
I74
sg12
I6
sg13
I13
sg14
I1
sg15
I3
sg16
I0
sg17
I0
ssg18
I57783400
ssI8
(dp96
g6
(dp97
V11
p98
I0
sV10
p99
I0
sg9
I176
sg10
I32
sg11
I76
sg12
I6
sg13
I14
sg14
I1
sg15
I3
sg16
I0
sg17
I0
ssg18
I87001254
ssI16
(dp100
g6
(dp101
V11
p102
I0
sV10
p103
I0
sg9
I176
sg10
I31
sg11
I75
sg12
I6
sg13
I13
sg14
I1
sg15
I3
sg16
I0
sg17
I0
ssg18
I150393689
sssssS'max-level-16'
p104
(dp105
I1024
(dp106
I50
(dp107
I64
(dp108
g6
(dp109
V10
p110
I0
sg9
I87
sg10
I15
sg11
I37
sg12
I3
sg13
I6
sg14
I0
sg15
I1
sg16
I0
sg17
I0
ssg18
I285390340
ssI32
(dp111
g6
(dp112
V10
p113
I0
sg9
I88
sg10
I16
sg11
I38
sg12
I3
sg13
I7
sg14
I0
sg15
I1
sg16
I0
sg17
I0
ssg18
I209823128
ssI2
(dp114
g6
(dp115
V10
p116
I0
sg9
I88
sg10
I15
sg11
I37
sg12
I3
sg13
I6
sg14
I0
sg15
I1
sg16
I0
sg17
I0
ssg18
I32240647
ssI4
(dp117
g6
(dp118
V10
p119
I0
sg9
I87
sg10
I16
sg11
I37
sg12
I3
sg13
I7
sg14
I0
sg15
I1
sg16
I0
sg17
I0
ssg18
I52163794
ssI8
(dp120
g6
(dp121
V10
p122
I0
sg9
I88
sg10
I15
sg11
I37
sg12
I3
sg13
I6
sg14
I0
sg15
I1
sg16
I0
sg17
I0
ssg18
I74917358
ssI16
(dp123
g6
(dp124
V10
p125
I0
sg9
I88
sg10
I16
sg11
I38
sg12
I3
sg13
I6
sg14
I0
sg15
I1
sg16
I0
sg17
I0
ssg18
I127535429
sssI20
(dp126
I64
(dp127
g6
(dp128
V10
p129
I0
sg9
I88
sg10
I15
sg11
I37
sg12
I3
sg13
I6
sg14
I0
sg15
I1
sg16
I0
sg17
I0
ssg18
I421532086
ssI32
(dp130
g6
(dp131
V10
p132
I0
sg9
I88
sg10
I14
sg11
I37
sg12
I3
sg13
I6
sg14
I0
sg15
I1
sg16
I0
sg17
I0
ssg18
I282338645
ssI2
(dp133
g6
(dp134
V10
p135
I0
sg9
I88
sg10
I15
sg11
I37
sg12
I3
sg13
I6
sg14
I0
sg15
I1
sg16
I0
sg17
I0
ssg18
I41657269
ssI4
(dp136
g6
(dp137
V10
p138
I0
sg9
I87
sg10
I15
sg11
I37
sg12
I3
sg13
I6
sg14
I0
sg15
I1
sg16
I0
sg17
I0
ssg18
I70054747
ssI8
(dp139
g6
(dp140
V10
p141
I0
sg9
I87
sg10
I15
sg11
I37
sg12
I3
sg13
I6
sg14
I0
sg15
I1
sg16
I0
sg17
I0
ssg18
I101333855
ssI16
(dp142
g6
(dp143
V10
p144
I0
sg9
I87
sg10
I15
sg11
I37
sg12
I3
sg13
I6
sg14
I0
sg15
I1
sg16
I0
sg17
I0
ssg18
I172254321
ssssI2048
(dp145
I50
(dp146
I64
(dp147
g6
(dp148
V11
p149
I0
sV10
p150
I0
sg9
I176
sg10
I31
sg11
I75
sg12
I6
sg13
I13
sg14
I1
sg15
I3
sg16
I0
sg17
I0
ssg18
I296149049
ssI32
(dp151
g6
(dp152
V11
p153
I0
sV10
p154
I0
sg9
I176
sg10
I31
sg11
I74
sg12
I6
sg13
I13
sg14
I1
sg15
I3
sg16
I0
sg17
I0
ssg18
I207352409
ssI2
(dp155
g6
(dp156
V11
p157
I0
sV10
p158
I0
sg9
I176
sg10
I31
sg11
I75
sg12
I6
sg13
I13
sg14
I1
sg15
I3
sg16
I0
sg17
I0
ssg18
I29818365
ssI4
(dp159
g6
(dp160
V11
p161
I0
sV10
p162
I0
sg9
I175
sg10
I31
sg11
I74
sg12
I6
sg13
I13
sg14
I1
sg15
I3
sg16
I0
sg17
I0
ssg18
I48571201
ssI8
(dp163
g6
(dp164
V11
p165
I0
sV10
p166
I0
sg9
I176
sg10
I31
sg11
I74
sg12
I6
sg13
I13
sg14
I1
sg15
I3
sg16
I0
sg17
I0
ssg18
I71345413
ssI16
(dp167
g6
(dp168
V11
p169
I0
sV10
p170
I0
sg9
I177
sg10
I32
sg11
I74
sg12
I6
sg13
I13
sg14
I1
sg15
I3
sg16
I0
sg17
I0
ssg18
I123618527
sssI20
(dp171
I64
(dp172
g6
(dp173
V11
p174
I0
sV10
p175
I0
sg9
I177
sg10
I31
sg11
I76
sg12
I6
sg13
I13
sg14
I1
sg15
I3
sg16
I0
sg17
I0
ssg18
I427097939
ssI32
(dp176
g6
(dp177
V11
p178
I0
sV10
p179
I0
sg9
I175
sg10
I31
sg11
I74
sg12
I6
sg13
I13
sg14
I1
sg15
I3
sg16
I0
sg17
I0
ssg18
I272018899
ssI2
(dp180
g6
(dp181
V11
p182
I0
sV10
p183
I0
sg9
I175
sg10
I31
sg11
I75
sg12
I6
sg13
I13
sg14
I1
sg15
I3
sg16
I0
sg17
I0
ssg18
I37174639
ssI4
(dp184
g6
(dp185
V11
p186
I0
sV10
p187
I0
sg9
I176
sg10
I31
sg11
I74
sg12
I6
sg13
I13
sg14
I1
sg15
I3
sg16
I0
sg17
I0
ssg18
I63457209
ssI8
(dp188
g6
(dp189
V11
p190
I0
sV10
p191
I0
sg9
I177
sg10
I31
sg11
I75
sg12
I6
sg13
I13
sg14
I1
sg15
I3
sg16
I0
sg17
I0
ssg18
I94131859
ssI16
(dp192
g6
(dp193
V11
p194
I0
sV10
p195
I0
sg9
I176
sg10
I31
sg11
I76
sg12
I6
sg13
I13
sg14
I1
sg15
I3
sg16
I0
sg17
I0
ssg18
I163410628
sssssS'dynamic-max-level'
p196
(dp197
I1024
(dp198
I50
(dp199
I64
(dp200
g6
(dp201
V10
p202
I0
sg9
I87
sg10
I16
sg11
I37
sg12
I3
sg13
I7
sg14
I0
sg15
I1
sg16
I0
sg17
I0
ssg18
I280590864
ssI32
(dp203
g6
(dp204
V10
p205
I0
sg9
I87
sg10
I15
sg11
I36
sg12
I3
sg13
I6
sg14
I0
sg15
I1
sg16
I0
sg17
I0
ssg18
I199500580
ssI2
(dp206
g6
(dp207
V10
p208
I0
sg9
I88
sg10
I15
sg11
I37
sg12
I3
sg13
I6
sg14
I0
sg15
I1
sg16
I0
sg17
I0
ssg18
I30353103
ssI4
(dp209
g6
(dp210
V10
p211
I0
sg9
I87
sg10
I15
sg11
I37
sg12
I3
sg13
I6
sg14
I0
sg15
I1
sg16
I0
sg17
I0
ssg18
I48531315
ssI8
(dp212
g6
(dp213
V10
p214
I0
sg9
I88
sg10
I15
sg11
I38
sg12
I3
sg13
I6
sg14
I0
sg15
I1
sg16
I0
sg17
I0
ssg18
I70465877
ssI16
(dp215
g6
(dp216
V10
p217
I0
sg9
I87
sg10
I15
sg11
I38
sg12
I3
sg13
I6
sg14
I0
sg15
I1
sg16
I0
sg17
I0
ssg18
I124798536
sssI20
(dp218
I64
(dp219
g6
(dp220
V10
p221
I0
sg9
I87
sg10
I15
sg11
I37
sg12
I3
sg13
I6
sg14
I0
sg15
I1
sg16
I0
sg17
I0
ssg18
I407906095
ssI32
(dp222
g6
(dp223
V10
p224
I0
sg9
I88
sg10
I16
sg11
I37
sg12
I3
sg13
I6
sg14
I0
sg15
I1
sg16
I0
sg17
I0
ssg18
I271356524
ssI2
(dp225
g6
(dp226
V10
p227
I0
sg9
I88
sg10
I16
sg11
I38
sg12
I3
sg13
I6
sg14
I0
sg15
I1
sg16
I0
sg17
I0
ssg18
I37417454
ssI4
(dp228
g6
(dp229
V10
p230
I0
sg9
I88
sg10
I15
sg11
I37
sg12
I3
sg13
I6
sg14
I0
sg15
I1
sg16
I0
sg17
I0
ssg18
I64937191
ssI8
(dp231
g6
(dp232
V10
p233
I0
sg9
I88
sg10
I15
sg11
I37
sg12
I3
sg13
I6
sg14
I0
sg15
I1
sg16
I0
sg17
I0
ssg18
I94948766
ssI16
(dp234
g6
(dp235
V10
p236
I0
sg9
I88
sg10
I16
sg11
I37
sg12
I3
sg13
I6
sg14
I0
sg15
I1
sg16
I0
sg17
I0
ssg18
I163691438
ssssI2048
(dp237
I50
(dp238
I64
(dp239
g6
(dp240
V11
p241
I0
sV10
p242
I0
sg9
I178
sg10
I31
sg11
I76
sg12
I6
sg13
I13
sg14
I1
sg15
I3
sg16
I0
sg17
I0
ssg18
I294743137
ssI32
(dp243
g6
(dp244
V11
p245
I0
sV10
p246
I0
sg9
I177
sg10
I31
sg11
I75
sg12
I6
sg13
I13
sg14
I1
sg15
I3
sg16
I0
sg17
I0
ssg18
I196671304
ssI2
(dp247
g6
(dp248
V11
p249
I0
sV10
p250
I0
sg9
I176
sg10
I32
sg11
I75
sg12
I6
sg13
I13
sg14
I1
sg15
I3
sg16
I0
sg17
I0
ssg18
I27828729
ssI4
(dp251
g6
(dp252
V11
p253
I0
sV10
p254
I0
sg9
I177
sg10
I31
sg11
I75
sg12
I6
sg13
I13
sg14
I1
sg15
I3
sg16
I0
sg17
I0
ssg18
I45656533
ssI8
(dp255
g6
(dp256
V11
p257
I0
sV10
p258
I0
sg9
I176
sg10
I31
sg11
I75
sg12
I6
sg13
I13
sg14
I1
sg15
I3
sg16
I0
sg17
I0
ssg18
I68129551
ssI16
(dp259
g6
(dp260
V11
p261
I0
sV10
p262
I0
sg9
I177
sg10
I32
sg11
I75
sg12
I6
sg13
I13
sg14
I1
sg15
I3
sg16
I0
sg17
I0
ssg18
I117592204
sssI20
(dp263
I64
(dp264
g6
(dp265
V11
p266
I0
sV10
p267
I0
sg9
I177
sg10
I32
sg11
I76
sg12
I6
sg13
I14
sg14
I1
sg15
I3
sg16
I0
sg17
I0
ssg18
I408828957
ssI32
(dp268
g6
(dp269
V11
p270
I0
sV10
p271
I0
sg9
I176
sg10
I30
sg11
I74
sg12
I6
sg13
I13
sg14
I1
sg15
I3
sg16
I0
sg17
I0
ssg18
I254610894
ssI2
(dp272
g6
(dp273
V11
p274
I0
sV10
p275
I0
sg9
I176
sg10
I32
sg11
I76
sg12
I6
sg13
I13
sg14
I1
sg15
I3
sg16
I0
sg17
I0
ssg18
I33260087
ssI4
(dp276
g6
(dp277
V11
p278
I0
sV10
p279
I0
sg9
I176
sg10
I31
sg11
I77
sg12
I6
sg13
I13
sg14
I1
sg15
I3
sg16
I0
sg17
I0
ssg18
I59152559
ssI8
(dp280
g6
(dp281
V11
p282
I0
sV10
p283
I0
sg9
I175
sg10
I31
sg11
I75
sg12
I6
sg13
I13
sg14
I1
sg15
I3
sg16
I0
sg17
I0
ssg18
I88073459
ssI16
(dp284
g6
(dp285
V11
p286
I0
sV10
p287
I0
sg9
I175
sg10
I31
sg11
I75
sg12
I6
sg13
I13
sg14
I1
sg15
I3
sg16
I0
sg17
I0
ssg18
I155210901
sssssS'max-level-12'
p288
(dp289
I1024
(dp290
I50
(dp291
I64
(dp292
g6
(dp293
V10
p294
I0
sg9
I87
sg10
I15
sg11
I37
sg12
I3
sg13
I6
sg14
I0
sg15
I1
sg16
I0
sg17
I0
ssg18
I286345350
ssI32
(dp295
g6
(dp296
V10
p297
I0
sg9
I87
sg10
I15
sg11
I37
sg12
I3
sg13
I6
sg14
I0
sg15
I1
sg16
I0
sg17
I0
ssg18
I200603198
ssI2
(dp298
g6
(dp299
V10
p300
I0
sg9
I89
sg10
I15
sg11
I38
sg12
I3
sg13
I6
sg14
I0
sg15
I1
sg16
I0
sg17
I0
ssg18
I30321447
ssI4
(dp301
g6
(dp302
V10
p303
I0
sg9
I88
sg10
I16
sg11
I38
sg12
I3
sg13
I7
sg14
I0
sg15
I1
sg16
I0
sg17
I0
ssg18
I48742019
ssI8
(dp304
g6
(dp305
V10
p306
I0
sg9
I88
sg10
I15
sg11
I38
sg12
I3
sg13
I6
sg14
I0
sg15
I1
sg16
I0
sg17
I0
ssg18
I71334986
ssI16
(dp307
g6
(dp308
V10
p309
I0
sg9
I87
sg10
I16
sg11
I37
sg12
I3
sg13
I6
sg14
I0
sg15
I1
sg16
I0
sg17
I0
ssg18
I121906660
sssI20
(dp310
I64
(dp311
g6
(dp312
V10
p313
I0
sg9
I88
sg10
I15
sg11
I38
sg12
I3
sg13
I6
sg14
I0
sg15
I1
sg16
I0
sg17
I0
ssg18
I407908197
ssI32
(dp314
g6
(dp315
V10
p316
I0
sg9
I88
sg10
I16
sg11
I38
sg12
I3
sg13
I6
sg14
I0
sg15
I1
sg16
I0
sg17
I0
ssg18
I270330956
ssI2
(dp317
g6
(dp318
V10
p319
I0
sg9
I87
sg10
I16
sg11
I37
sg12
I3
sg13
I6
sg14
I0
sg15
I1
sg16
I0
sg17
I0
ssg18
I37404797
ssI4
(dp320
g6
(dp321
V10
p322
I0
sg9
I87
sg10
I15
sg11
I37
sg12
I3
sg13
I6
sg14
I0
sg15
I1
sg16
I0
sg17
I0
ssg18
I64205145
ssI8
(dp323
g6
(dp324
V10
p325
I0
sg9
I87
sg10
I16
sg11
I37
sg12
I3
sg13
I7
sg14
I0
sg15
I1
sg16
I0
sg17
I0
ssg18
I96062921
ssI16
(dp326
g6
(dp327
V10
p328
I0
sg9
I87
sg10
I15
sg11
I36
sg12
I3
sg13
I6
sg14
I0
sg15
I1
sg16
I0
sg17
I0
ssg18
I163004059
ssssI2048
(dp329
I50
(dp330
I64
(dp331
g6
(dp332
V11
p333
I0
sV10
p334
I0
sg9
I177
sg10
I31
sg11
I75
sg12
I6
sg13
I13
sg14
I1
sg15
I3
sg16
I0
sg17
I0
ssg18
I296506318
ssI32
(dp335
g6
(dp336
V11
p337
I0
sV10
p338
I0
sg9
I175
sg10
I32
sg11
I74
sg12
I6
sg13
I13
sg14
I1
sg15
I3
sg16
I0
sg17
I0
ssg18
I197255090
ssI2
(dp339
g6
(dp340
V11
p341
I0
sV10
p342
I0
sg9
I177
sg10
I31
sg11
I75
sg12
I6
sg13
I13
sg14
I1
sg15
I3
sg16
I0
sg17
I0
ssg18
I27692546
ssI4
(dp343
g6
(dp344
V11
p345
I0
sV10
p346
I0
sg9
I176
sg10
I32
sg11
I75
sg12
I6
sg13
I13
sg14
I1
sg15
I3
sg16
I0
sg17
I0
ssg18
I45668404
ssI8
(dp347
g6
(dp348
V11
p349
I0
sV10
p350
I0
sg9
I177
sg10
I31
sg11
I75
sg12
I6
sg13
I13
sg14
I1
sg15
I3
sg16
I0
sg17
I0
ssg18
I67207035
ssI16
(dp351
g6
(dp352
V11
p353
I0
sV10
p354
I0
sg9
I176
sg10
I31
sg11
I74
sg12
I6
sg13
I13
sg14
I1
sg15
I3
sg16
I0
sg17
I0
ssg18
I120349302
sssI20
(dp355
I64
(dp356
g6
(dp357
V11
p358
I0
sV10
p359
I0
sg9
I177
sg10
I31
sg11
I75
sg12
I6
sg13
I14
sg14
I1
sg15
I3
sg16
I0
sg17
I0
ssg18
I408392124
ssI32
(dp360
g6
(dp361
V11
p362
I0
sV10
p363
I0
sg9
I176
sg10
I31
sg11
I75
sg12
I6
sg13
I13
sg14
I1
sg15
I3
sg16
I0
sg17
I0
ssg18
I259083296
ssI2
(dp364
g6
(dp365
V11
p366
I0
sV10
p367
I0
sg9
I176
sg10
I31
sg11
I75
sg12
I6
sg13
I13
sg14
I1
sg15
I3
sg16
I0
sg17
I0
ssg18
I33654384
ssI4
(dp368
g6
(dp369
V11
p370
I0
sV10
p371
I0
sg9
I177
sg10
I31
sg11
I75
sg12
I6
sg13
I13
sg14
I1
sg15
I3
sg16
I0
sg17
I0
ssg18
I59345608
ssI8
(dp372
g6
(dp373
V11
p374
I0
sV10
p375
I0
sg9
I178
sg10
I32
sg11
I76
sg12
I6
sg13
I13
sg14
I1
sg15
I3
sg16
I0
sg17
I0
ssg18
I89448268
ssI16
(dp376
g6
(dp377
V11
p378
I0
sV10
p379
I0
sg9
I177
sg10
I32
sg11
I75
sg12
I6
sg13
I13
sg14
I1
sg15
I3
sg16
I0
sg17
I0
ssg18
I152422121
sssssS'first-level-delete-ten-threshold'
p380
(dp381
I1024
(dp382
I50
(dp383
I64
(dp384
g6
(dp385
V10
p386
I0
sg9
I88
sg10
I15
sg11
I37
sg12
I3
sg13
I6
sg14
I0
sg15
I1
sg16
I0
sg17
I0
ssg18
I279538075
ssI32
(dp387
g6
(dp388
V10
p389
I0
sg9
I88
sg10
I15
sg11
I37
sg12
I3
sg13
I6
sg14
I0
sg15
I1
sg16
I0
sg17
I0
ssg18
I197639102
ssI2
(dp390
g6
(dp391
V10
p392
I0
sg9
I89
sg10
I15
sg11
I38
sg12
I3
sg13
I6
sg14
I0
sg15
I1
sg16
I0
sg17
I0
ssg18
I29728143
ssI4
(dp393
g6
(dp394
V10
p395
I0
sg9
I88
sg10
I15
sg11
I37
sg12
I3
sg13
I6
sg14
I0
sg15
I1
sg16
I0
sg17
I0
ssg18
I47927063
ssI8
(dp396
g6
(dp397
V10
p398
I0
sg9
I89
sg10
I16
sg11
I38
sg12
I3
sg13
I6
sg14
I0
sg15
I1
sg16
I0
sg17
I0
ssg18
I70626490
ssI16
(dp399
g6
(dp400
V10
p401
I0
sg9
I88
sg10
I15
sg11
I37
sg12
I3
sg13
I6
sg14
I0
sg15
I1
sg16
I0
sg17
I0
ssg18
I121664892
sssI20
(dp402
I64
(dp403
g6
(dp404
V10
p405
I0
sg9
I88
sg10
I15
sg11
I37
sg12
I3
sg13
I6
sg14
I0
sg15
I1
sg16
I0
sg17
I0
ssg18
I401353140
ssI32
(dp406
g6
(dp407
V10
p408
I0
sg9
I88
sg10
I15
sg11
I37
sg12
I3
sg13
I6
sg14
I0
sg15
I1
sg16
I0
sg17
I0
ssg18
I264422891
ssI2
(dp409
g6
(dp410
V10
p411
I0
sg9
I88
sg10
I16
sg11
I37
sg12
I3
sg13
I6
sg14
I0
sg15
I1
sg16
I0
sg17
I0
ssg18
I36537113
ssI4
(dp412
g6
(dp413
V10
p414
I0
sg9
I88
sg10
I16
sg11
I37
sg12
I3
sg13
I6
sg14
I0
sg15
I1
sg16
I0
sg17
I0
ssg18
I64111527
ssI8
(dp415
g6
(dp416
V10
p417
I0
sg9
I88
sg10
I15
sg11
I37
sg12
I3
sg13
I6
sg14
I0
sg15
I1
sg16
I0
sg17
I0
ssg18
I93090644
ssI16
(dp418
g6
(dp419
V10
p420
I0
sg9
I87
sg10
I16
sg11
I37
sg12
I3
sg13
I6
sg14
I0
sg15
I1
sg16
I0
sg17
I0
ssg18
I160695593
ssssI2048
(dp421
I50
(dp422
I64
(dp423
g6
(dp424
V11
p425
I0
sV10
p426
I0
sg9
I175
sg10
I31
sg11
I75
sg12
I6
sg13
I13
sg14
I1
sg15
I3
sg16
I0
sg17
I0
ssg18
I284488735
ssI32
(dp427
g6
(dp428
V11
p429
I0
sV10
p430
I0
sg9
I176
sg10
I31
sg11
I75
sg12
I6
sg13
I13
sg14
I1
sg15
I3
sg16
I0
sg17
I0
ssg18
I192924811
ssI2
(dp431
g6
(dp432
V11
p433
I0
sV10
p434
I0
sg9
I176
sg10
I31
sg11
I74
sg12
I6
sg13
I13
sg14
I1
sg15
I3
sg16
I0
sg17
I0
ssg18
I27802186
ssI4
(dp435
g6
(dp436
V11
p437
I0
sV10
p438
I0
sg9
I175
sg10
I31
sg11
I74
sg12
I6
sg13
I13
sg14
I1
sg15
I3
sg16
I0
sg17
I0
ssg18
I44937934
ssI8
(dp439
g6
(dp440
V11
p441
I0
sV10
p442
I0
sg9
I175
sg10
I31
sg11
I74
sg12
I6
sg13
I13
sg14
I1
sg15
I3
sg16
I0
sg17
I0
ssg18
I67531636
ssI16
(dp443
g6
(dp444
V11
p445
I0
sV10
p446
I0
sg9
I177
sg10
I31
sg11
I75
sg12
I6
sg13
I13
sg14
I1
sg15
I3
sg16
I0
sg17
I0
ssg18
I115976795
sssI20
(dp447
I64
(dp448
g6
(dp449
V11
p450
I0
sV10
p451
I0
sg9
I177
sg10
I30
sg11
I75
sg12
I6
sg13
I13
sg14
I1
sg15
I3
sg16
I0
sg17
I0
ssg18
I403954224
ssI32
(dp452
g6
(dp453
V11
p454
I0
sV10
p455
I0
sg9
I176
sg10
I31
sg11
I74
sg12
I6
sg13
I13
sg14
I1
sg15
I3
sg16
I0
sg17
I0
ssg18
I253536712
ssI2
(dp456
g6
(dp457
V11
p458
I0
sV10
p459
I0
sg9
I176
sg10
I31
sg11
I74
sg12
I6
sg13
I13
sg14
I1
sg15
I3
sg16
I0
sg17
I0
ssg18
I33133478
ssI4
(dp460
g6
(dp461
V11
p462
I0
sV10
p463
I0
sg9
I176
sg10
I30
sg11
I74
sg12
I6
sg13
I13
sg14
I1
sg15
I3
sg16
I0
sg17
I0
ssg18
I57832966
ssI8
(dp464
g6
(dp465
V11
p466
I0
sV10
p467
I0
sg9
I176
sg10
I31
sg11
I75
sg12
I6
sg13
I13
sg14
I1
sg15
I3
sg16
I0
sg17
I0
ssg18
I87915402
ssI16
(dp468
g6
(dp469
V11
p470
I0
sV10
p471
I0
sg9
I176
sg10
I32
sg11
I75
sg12
I6
sg13
I13
sg14
I1
sg15
I3
sg16
I0
sg17
I0
ssg18
I152021762
sssssS'first-level-delete-five-threshold'
p472
(dp473
I1024
(dp474
I50
(dp475
I64
(dp476
g6
(dp477
V10
p478
I0
sg9
I88
sg10
I15
sg11
I37
sg12
I3
sg13
I6
sg14
I0
sg15
I1
sg16
I0
sg17
I0
ssg18
I279560382
ssI32
(dp479
g6
(dp480
V10
p481
I0
sg9
I88
sg10
I15
sg11
I37
sg12
I3
sg13
I6
sg14
I0
sg15
I1
sg16
I0
sg17
I0
ssg18
I197145804
ssI2
(dp482
g6
(dp483
V10
p484
I0
sg9
I88
sg10
I15
sg11
I37
sg12
I3
sg13
I6
sg14
I0
sg15
I1
sg16
I0
sg17
I0
ssg18
I29028903
ssI4
(dp485
g6
(dp486
V10
p487
I0
sg9
I88
sg10
I15
sg11
I37
sg12
I3
sg13
I6
sg14
I0
sg15
I1
sg16
I0
sg17
I0
ssg18
I48042101
ssI8
(dp488
g6
(dp489
V10
p490
I0
sg9
I88
sg10
I16
sg11
I37
sg12
I3
sg13
I6
sg14
I0
sg15
I1
sg16
I0
sg17
I0
ssg18
I69230623
ssI16
(dp491
g6
(dp492
V10
p493
I0
sg9
I87
sg10
I15
sg11
I36
sg12
I3
sg13
I6
sg14
I0
sg15
I1
sg16
I0
sg17
I0
ssg18
I122542255
sssI20
(dp494
I64
(dp495
g6
(dp496
V10
p497
I0
sg9
I87
sg10
I15
sg11
I37
sg12
I3
sg13
I6
sg14
I0
sg15
I1
sg16
I0
sg17
I0
ssg18
I402719918
ssI32
(dp498
g6
(dp499
V10
p500
I0
sg9
I88
sg10
I16
sg11
I37
sg12
I3
sg13
I6
sg14
I0
sg15
I1
sg16
I0
sg17
I0
ssg18
I265650523
ssI2
(dp501
g6
(dp502
V10
p503
I0
sg9
I88
sg10
I16
sg11
I37
sg12
I3
sg13
I6
sg14
I0
sg15
I1
sg16
I0
sg17
I0
ssg18
I36305403
ssI4
(dp504
g6
(dp505
V10
p506
I0
sg9
I88
sg10
I16
sg11
I37
sg12
I3
sg13
I6
sg14
I0
sg15
I1
sg16
I0
sg17
I0
ssg18
I63008090
ssI8
(dp507
g6
(dp508
V10
p509
I0
sg9
I88
sg10
I16
sg11
I38
sg12
I3
sg13
I7
sg14
I0
sg15
I1
sg16
I0
sg17
I0
ssg18
I93788415
ssI16
(dp510
g6
(dp511
V10
p512
I0
sg9
I88
sg10
I15
sg11
I37
sg12
I3
sg13
I6
sg14
I0
sg15
I1
sg16
I0
sg17
I0
ssg18
I161381993
ssssI2048
(dp513
I50
(dp514
I64
(dp515
g6
(dp516
V11
p517
I0
sV10
p518
I0
sg9
I177
sg10
I31
sg11
I75
sg12
I6
sg13
I13
sg14
I1
sg15
I3
sg16
I0
sg17
I0
ssg18
I287958069
ssI32
(dp519
g6
(dp520
V11
p521
I0
sV10
p522
I0
sg9
I177
sg10
I31
sg11
I75
sg12
I6
sg13
I13
sg14
I1
sg15
I3
sg16
I0
sg17
I0
ssg18
I193474553
ssI2
(dp523
g6
(dp524
V11
p525
I0
sV10
p526
I0
sg9
I176
sg10
I31
sg11
I74
sg12
I6
sg13
I13
sg14
I1
sg15
I3
sg16
I0
sg17
I0
ssg18
I27674123
ssI4
(dp527
g6
(dp528
V11
p529
I0
sV10
p530
I0
sg9
I177
sg10
I31
sg11
I75
sg12
I6
sg13
I13
sg14
I1
sg15
I3
sg16
I0
sg17
I0
ssg18
I45105469
ssI8
(dp531
g6
(dp532
V11
p533
I0
sV10
p534
I0
sg9
I176
sg10
I31
sg11
I76
sg12
I6
sg13
I13
sg14
I1
sg15
I3
sg16
I0
sg17
I0
ssg18
I66683374
ssI16
(dp535
g6
(dp536
V11
p537
I0
sV10
p538
I0
sg9
I176
sg10
I31
sg11
I74
sg12
I6
sg13
I13
sg14
I1
sg15
I3
sg16
I0
sg17
I0
ssg18
I114327970
sssI20
(dp539
I64
(dp540
g6
(dp541
V11
p542
I0
sV10
p543
I0
sg9
I176
sg10
I31
sg11
I74
sg12
I6
sg13
I13
sg14
I1
sg15
I3
sg16
I0
sg17
I0
ssg18
I401161617
ssI32
(dp544
g6
(dp545
V11
p546
I0
sV10
p547
I0
sg9
I176
sg10
I32
sg11
I74
sg12
I6
sg13
I13
sg14
I1
sg15
I3
sg16
I0
sg17
I0
ssg18
I252932079
ssI2
(dp548
g6
(dp549
V11
p550
I0
sV10
p551
I0
sg9
I176
sg10
I31
sg11
I75
sg12
I6
sg13
I13
sg14
I1
sg15
I3
sg16
I0
sg17
I0
ssg18
I33026909
ssI4
(dp552
g6
(dp553
V11
p554
I0
sV10
p555
I0
sg9
I176
sg10
I31
sg11
I74
sg12
I6
sg13
I13
sg14
I1
sg15
I3
sg16
I0
sg17
I0
ssg18
I58185594
ssI8
(dp556
g6
(dp557
V11
p558
I0
sV10
p559
I0
sg9
I175
sg10
I31
sg11
I73
sg12
I6
sg13
I13
sg14
I1
sg15
I3
sg16
I0
sg17
I0
ssg18
I86989516
ssI16
(dp560
g6
(dp561
V11
p562
I0
sV10
p563
I0
sg9
I176
sg10
I31
sg11
I75
sg12
I6
sg13
I13
sg14
I1
sg15
I3
sg16
I0
sg17
I0
ssg18
I149453370
sssssS'first-level-delete-three-four-threshold'
p564
(dp565
I1024
(dp566
I50
(dp567
I64
(dp568
g6
(dp569
V10
p570
I0
sg9
I88
sg10
I16
sg11
I37
sg12
I3
sg13
I6
sg14
I0
sg15
I1
sg16
I0
sg17
I0
ssg18
I279098694
ssI32
(dp571
g6
(dp572
V10
p573
I0
sg9
I88
sg10
I15
sg11
I37
sg12
I3
sg13
I6
sg14
I0
sg15
I1
sg16
I0
sg17
I0
ssg18
I197661960
ssI2
(dp574
g6
(dp575
V10
p576
I0
sg9
I88
sg10
I15
sg11
I37
sg12
I3
sg13
I6
sg14
I0
sg15
I1
sg16
I0
sg17
I0
ssg18
I29578849
ssI4
(dp577
g6
(dp578
V10
p579
I0
sg9
I88
sg10
I15
sg11
I38
sg12
I3
sg13
I6
sg14
I0
sg15
I1
sg16
I0
sg17
I0
ssg18
I47619047
ssI8
(dp580
g6
(dp581
V10
p582
I0
sg9
I88
sg10
I16
sg11
I38
sg12
I3
sg13
I6
sg14
I0
sg15
I1
sg16
I0
sg17
I0
ssg18
I70048143
ssI16
(dp583
g6
(dp584
V10
p585
I0
sg9
I87
sg10
I15
sg11
I37
sg12
I3
sg13
I6
sg14
I0
sg15
I1
sg16
I0
sg17
I0
ssg18
I119930598
sssI20
(dp586
I64
(dp587
g6
(dp588
V10
p589
I0
sg9
I88
sg10
I16
sg11
I37
sg12
I3
sg13
I6
sg14
I0
sg15
I1
sg16
I0
sg17
I0
ssg18
I401388011
ssI32
(dp590
g6
(dp591
V10
p592
I0
sg9
I87
sg10
I15
sg11
I37
sg12
I3
sg13
I6
sg14
I0
sg15
I1
sg16
I0
sg17
I0
ssg18
I263556295
ssI2
(dp593
g6
(dp594
V10
p595
I0
sg9
I88
sg10
I15
sg11
I38
sg12
I3
sg13
I6
sg14
I0
sg15
I1
sg16
I0
sg17
I0
ssg18
I36525893
ssI4
(dp596
g6
(dp597
V10
p598
I0
sg9
I89
sg10
I16
sg11
I38
sg12
I3
sg13
I6
sg14
I0
sg15
I1
sg16
I0
sg17
I0
ssg18
I63171227
ssI8
(dp599
g6
(dp600
V10
p601
I0
sg9
I88
sg10
I16
sg11
I37
sg12
I3
sg13
I6
sg14
I0
sg15
I1
sg16
I0
sg17
I0
ssg18
I91725650
ssI16
(dp602
g6
(dp603
V10
p604
I0
sg9
I87
sg10
I15
sg11
I37
sg12
I3
sg13
I6
sg14
I0
sg15
I1
sg16
I0
sg17
I0
ssg18
I159852223
ssssI2048
(dp605
I50
(dp606
I64
(dp607
g6
(dp608
V11
p609
I0
sV10
p610
I0
sg9
I176
sg10
I31
sg11
I75
sg12
I6
sg13
I13
sg14
I1
sg15
I3
sg16
I0
sg17
I0
ssg18
I287958980
ssI32
(dp611
g6
(dp612
V11
p613
I0
sV10
p614
I0
sg9
I177
sg10
I31
sg11
I76
sg12
I6
sg13
I13
sg14
I1
sg15
I3
sg16
I0
sg17
I0
ssg18
I193967073
ssI2
(dp615
g6
(dp616
V11
p617
I0
sV10
p618
I0
sg9
I176
sg10
I31
sg11
I75
sg12
I6
sg13
I13
sg14
I1
sg15
I3
sg16
I0
sg17
I0
ssg18
I27291848
ssI4
(dp619
g6
(dp620
V11
p621
I0
sV10
p622
I0
sg9
I176
sg10
I31
sg11
I75
sg12
I6
sg13
I13
sg14
I1
sg15
I3
sg16
I0
sg17
I0
ssg18
I43691023
ssI8
(dp623
g6
(dp624
V11
p625
I0
sV10
p626
I0
sg9
I176
sg10
I31
sg11
I75
sg12
I6
sg13
I12
sg14
I1
sg15
I3
sg16
I0
sg17
I0
ssg18
I66645557
ssI16
(dp627
g6
(dp628
V11
p629
I0
sV10
p630
I0
sg9
I176
sg10
I32
sg11
I75
sg12
I6
sg13
I13
sg14
I1
sg15
I3
sg16
I0
sg17
I0
ssg18
I115251510
sssI20
(dp631
I64
(dp632
g6
(dp633
V11
p634
I0
sV10
p635
I0
sg9
I177
sg10
I31
sg11
I74
sg12
I6
sg13
I13
sg14
I1
sg15
I3
sg16
I0
sg17
I0
ssg18
I401732065
ssI32
(dp636
g6
(dp637
V11
p638
I0
sV10
p639
I0
sg9
I175
sg10
I31
sg11
I74
sg12
I6
sg13
I13
sg14
I1
sg15
I3
sg16
I0
sg17
I0
ssg18
I255661558
ssI2
(dp640
g6
(dp641
V11
p642
I0
sV10
p643
I0
sg9
I176
sg10
I31
sg11
I75
sg12
I6
sg13
I13
sg14
I1
sg15
I3
sg16
I0
sg17
I0
ssg18
I32939407
ssI4
(dp644
g6
(dp645
V11
p646
I0
sV10
p647
I0
sg9
I176
sg10
I31
sg11
I74
sg12
I6
sg13
I13
sg14
I1
sg15
I3
sg16
I0
sg17
I0
ssg18
I58344699
ssI8
(dp648
g6
(dp649
V11
p650
I0
sV10
p651
I0
sg9
I176
sg10
I32
sg11
I74
sg12
I6
sg13
I13
sg14
I1
sg15
I3
sg16
I0
sg17
I0
ssg18
I88241849
ssI16
(dp652
g6
(dp653
V11
p654
I0
sV10
p655
I0
sg9
I176
sg10
I31
sg11
I74
sg12
I6
sg13
I13
sg14
I1
sg15
I3
sg16
I0
sg17
I0
ssg18
I151464558
sssssS'background_sleep_original'
p656
(dp657
I1024
(dp658
I50
(dp659
I64
(dp660
g6
(dp661
V10
p662
I0
sg9
I88
sg10
I15
sg11
I37
sg12
I3
sg13
I6
sg14
I0
sg15
I1
sg16
I0
sg17
I0
ssg18
I284670530
ssI32
(dp663
g6
(dp664
V10
p665
I0
sg9
I88
sg10
I16
sg11
I37
sg12
I3
sg13
I6
sg14
I0
sg15
I1
sg16
I0
sg17
I0
ssg18
I200793243
ssI2
(dp666
g6
(dp667
V10
p668
I0
sg9
I87
sg10
I16
sg11
I37
sg12
I3
sg13
I6
sg14
I0
sg15
I1
sg16
I0
sg17
I0
ssg18
I30004734
ssI4
(dp669
g6
(dp670
V10
p671
I0
sg9
I89
sg10
I16
sg11
I38
sg12
I3
sg13
I6
sg14
I0
sg15
I1
sg16
I0
sg17
I0
ssg18
I48793233
ssI8
(dp672
g6
(dp673
V10
p674
I0
sg9
I88
sg10
I15
sg11
I37
sg12
I3
sg13
I6
sg14
I0
sg15
I1
sg16
I0
sg17
I0
ssg18
I70721387
ssI16
(dp675
g6
(dp676
V10
p677
I0
sg9
I88
sg10
I15
sg11
I37
sg12
I3
sg13
I6
sg14
I0
sg15
I1
sg16
I0
sg17
I0
ssg18
I122164363
sssI20
(dp678
I64
(dp679
g6
(dp680
V10
p681
I0
sg9
I89
sg10
I16
sg11
I38
sg12
I3
sg13
I7
sg14
I0
sg15
I1
sg16
I0
sg17
I0
ssg18
I408399900
ssI32
(dp682
g6
(dp683
V10
p684
I0
sg9
I89
sg10
I15
sg11
I38
sg12
I3
sg13
I6
sg14
I0
sg15
I1
sg16
I0
sg17
I0
ssg18
I270241466
ssI2
(dp685
g6
(dp686
V10
p687
I0
sg9
I87
sg10
I15
sg11
I37
sg12
I3
sg13
I6
sg14
I0
sg15
I1
sg16
I0
sg17
I0
ssg18
I37432835
ssI4
(dp688
g6
(dp689
V10
p690
I0
sg9
I88
sg10
I16
sg11
I37
sg12
I3
sg13
I6
sg14
I0
sg15
I1
sg16
I0
sg17
I0
ssg18
I64607666
ssI8
(dp691
g6
(dp692
V10
p693
I0
sg9
I87
sg10
I15
sg11
I36
sg12
I3
sg13
I6
sg14
I0
sg15
I1
sg16
I0
sg17
I0
ssg18
I94947072
ssI16
(dp694
g6
(dp695
V10
p696
I0
sg9
I87
sg10
I15
sg11
I36
sg12
I3
sg13
I6
sg14
I0
sg15
I1
sg16
I0
sg17
I0
ssg18
I163110325
ssssI2048
(dp697
I50
(dp698
I64
(dp699
g6
(dp700
V11
p701
I0
sV10
p702
I0
sg9
I176
sg10
I32
sg11
I76
sg12
I6
sg13
I13
sg14
I1
sg15
I3
sg16
I0
sg17
I0
ssg18
I298567076
ssI32
(dp703
g6
(dp704
V11
p705
I0
sV10
p706
I0
sg9
I176
sg10
I30
sg11
I74
sg12
I6
sg13
I13
sg14
I1
sg15
I3
sg16
I0
sg17
I0
ssg18
I197927164
ssI2
(dp707
g6
(dp708
V11
p709
I0
sV10
p710
I0
sg9
I175
sg10
I31
sg11
I74
sg12
I6
sg13
I13
sg14
I1
sg15
I3
sg16
I0
sg17
I0
ssg18
I27647952
ssI4
(dp711
g6
(dp712
V11
p713
I0
sV10
p714
I0
sg9
I178
sg10
I32
sg11
I76
sg12
I6
sg13
I13
sg14
I1
sg15
I3
sg16
I0
sg17
I0
ssg18
I45907723
ssI8
(dp715
g6
(dp716
V11
p717
I0
sV10
p718
I0
sg9
I177
sg10
I31
sg11
I76
sg12
I6
sg13
I13
sg14
I1
sg15
I3
sg16
I0
sg17
I0
ssg18
I66840597
ssI16
(dp719
g6
(dp720
V11
p721
I0
sV10
p722
I0
sg9
I177
sg10
I31
sg11
I75
sg12
I6
sg13
I14
sg14
I1
sg15
I3
sg16
I0
sg17
I0
ssg18
I116816056
sssI20
(dp723
I64
(dp724
g6
(dp725
V11
p726
I0
sV10
p727
I0
sg9
I176
sg10
I31
sg11
I74
sg12
I6
sg13
I13
sg14
I1
sg15
I3
sg16
I0
sg17
I0
ssg18
I410036615
ssI32
(dp728
g6
(dp729
V11
p730
I0
sV10
p731
I0
sg9
I175
sg10
I31
sg11
I74
sg12
I6
sg13
I13
sg14
I1
sg15
I3
sg16
I0
sg17
I0
ssg18
I259420928
ssI2
(dp732
g6
(dp733
V11
p734
I0
sV10
p735
I0
sg9
I178
sg10
I31
sg11
I75
sg12
I6
sg13
I14
sg14
I1
sg15
I3
sg16
I0
sg17
I0
ssg18
I33978503
ssI4
(dp736
g6
(dp737
V11
p738
I0
sV10
p739
I0
sg9
I176
sg10
I31
sg11
I74
sg12
I6
sg13
I13
sg14
I1
sg15
I3
sg16
I0
sg17
I0
ssg18
I59767059
ssI8
(dp740
g6
(dp741
V11
p742
I0
sV10
p743
I0
sg9
I176
sg10
I31
sg11
I75
sg12
I6
sg13
I13
sg14
I1
sg15
I3
sg16
I0
sg17
I0
ssg18
I88763226
ssI16
(dp744
g6
(dp745
V11
p746
I0
sV10
p747
I0
sg9
I175
sg10
I30
sg11
I75
sg12
I6
sg13
I13
sg14
I1
sg15
I3
sg16
I0
sg17
I0
ssg18
I156127751
sssssS'first-level-delete-one-threshold'
p748
(dp749
I1024
(dp750
I50
(dp751
I64
(dp752
g6
(dp753
V10
p754
I0
sg9
I88
sg10
I16
sg11
I37
sg12
I3
sg13
I6
sg14
I0
sg15
I1
sg16
I0
sg17
I0
ssg18
I273518447
ssI32
(dp755
g6
(dp756
V10
p757
I0
sg9
I89
sg10
I15
sg11
I37
sg12
I3
sg13
I6
sg14
I0
sg15
I1
sg16
I0
sg17
I0
ssg18
I196976558
ssI2
(dp758
g6
(dp759
V10
p760
I0
sg9
I88
sg10
I15
sg11
I37
sg12
I3
sg13
I6
sg14
I0
sg15
I1
sg16
I0
sg17
I0
ssg18
I28970648
ssI4
(dp761
g6
(dp762
V10
p763
I0
sg9
I88
sg10
I15
sg11
I38
sg12
I3
sg13
I6
sg14
I0
sg15
I1
sg16
I0
sg17
I0
ssg18
I47838909
ssI8
(dp764
g6
(dp765
V10
p766
I0
sg9
I88
sg10
I16
sg11
I37
sg12
I3
sg13
I6
sg14
I0
sg15
I1
sg16
I0
sg17
I0
ssg18
I69458936
ssI16
(dp767
g6
(dp768
V10
p769
I0
sg9
I89
sg10
I15
sg11
I37
sg12
I3
sg13
I6
sg14
I0
sg15
I1
sg16
I0
sg17
I0
ssg18
I122418996
sssI20
(dp770
I64
(dp771
g6
(dp772
V10
p773
I0
sg9
I88
sg10
I15
sg11
I37
sg12
I3
sg13
I6
sg14
I0
sg15
I1
sg16
I0
sg17
I0
ssg18
I403258631
ssI32
(dp774
g6
(dp775
V10
p776
I0
sg9
I86
sg10
I15
sg11
I36
sg12
I3
sg13
I6
sg14
I0
sg15
I1
sg16
I0
sg17
I0
ssg18
I265900462
ssI2
(dp777
g6
(dp778
V10
p779
I0
sg9
I88
sg10
I15
sg11
I38
sg12
I3
sg13
I6
sg14
I0
sg15
I1
sg16
I0
sg17
I0
ssg18
I36556850
ssI4
(dp780
g6
(dp781
V10
p782
I0
sg9
I89
sg10
I15
sg11
I37
sg12
I3
sg13
I6
sg14
I0
sg15
I1
sg16
I0
sg17
I0
ssg18
I63272761
ssI8
(dp783
g6
(dp784
V10
p785
I0
sg9
I88
sg10
I16
sg11
I37
sg12
I3
sg13
I6
sg14
I0
sg15
I1
sg16
I0
sg17
I0
ssg18
I93865096
ssI16
(dp786
g6
(dp787
V10
p788
I0
sg9
I87
sg10
I15
sg11
I37
sg12
I3
sg13
I6
sg14
I0
sg15
I1
sg16
I0
sg17
I0
ssg18
I161443282
ssssI2048
(dp789
I50
(dp790
I64
(dp791
g6
(dp792
V11
p793
I0
sV10
p794
I0
sg9
I176
sg10
I32
sg11
I75
sg12
I6
sg13
I13
sg14
I1
sg15
I3
sg16
I0
sg17
I0
ssg18
I285989657
ssI32
(dp795
g6
(dp796
V11
p797
I0
sV10
p798
I0
sg9
I176
sg10
I30
sg11
I73
sg12
I6
sg13
I13
sg14
I1
sg15
I3
sg16
I0
sg17
I0
ssg18
I193873306
ssI2
(dp799
g6
(dp800
V11
p801
I0
sV10
p802
I0
sg9
I177
sg10
I31
sg11
I75
sg12
I6
sg13
I13
sg14
I1
sg15
I3
sg16
I0
sg17
I0
ssg18
I26895002
ssI4
(dp803
g6
(dp804
V11
p805
I0
sV10
p806
I0
sg9
I176
sg10
I31
sg11
I74
sg12
I6
sg13
I13
sg14
I1
sg15
I3
sg16
I0
sg17
I0
ssg18
I44807547
ssI8
(dp807
g6
(dp808
V11
p809
I0
sV10
p810
I0
sg9
I176
sg10
I31
sg11
I74
sg12
I6
sg13
I13
sg14
I1
sg15
I3
sg16
I0
sg17
I0
ssg18
I66873988
ssI16
(dp811
g6
(dp812
V11
p813
I0
sV10
p814
I0
sg9
I177
sg10
I31
sg11
I76
sg12
I6
sg13
I13
sg14
I1
sg15
I3
sg16
I0
sg17
I0
ssg18
I117552555
sssI20
(dp815
I64
(dp816
g6
(dp817
V11
p818
I0
sV10
p819
I0
sg9
I177
sg10
I31
sg11
I75
sg12
I6
sg13
I13
sg14
I1
sg15
I3
sg16
I0
sg17
I0
ssg18
I403468724
ssI32
(dp820
g6
(dp821
V11
p822
I0
sV10
p823
I0
sg9
I176
sg10
I31
sg11
I73
sg12
I6
sg13
I13
sg14
I1
sg15
I3
sg16
I0
sg17
I0
ssg18
I254562937
ssI2
(dp824
g6
(dp825
V11
p826
I0
sV10
p827
I0
sg9
I176
sg10
I31
sg11
I74
sg12
I6
sg13
I13
sg14
I1
sg15
I3
sg16
I0
sg17
I0
ssg18
I33376156
ssI4
(dp828
g6
(dp829
V11
p830
I0
sV10
p831
I0
sg9
I176
sg10
I32
sg11
I75
sg12
I6
sg13
I13
sg14
I1
sg15
I3
sg16
I0
sg17
I0
ssg18
I58545090
ssI8
(dp832
g6
(dp833
V11
p834
I0
sV10
p835
I0
sg9
I177
sg10
I31
sg11
I75
sg12
I6
sg13
I13
sg14
I1
sg15
I3
sg16
I0
sg17
I0
ssg18
I87255418
ssI16
(dp836
g6
(dp837
V11
p838
I0
sV10
p839
I0
sg9
I176
sg10
I31
sg11
I74
sg12
I6
sg13
I13
sg14
I1
sg15
I3
sg16
I0
sg17
I0
ssg18
I152760045
sssssS'first-level-delete-half-threshold'
p840
(dp841
I1024
(dp842
I50
(dp843
I64
(dp844
g6
(dp845
V10
p846
I0
sg9
I88
sg10
I15
sg11
I36
sg12
I3
sg13
I6
sg14
I0
sg15
I1
sg16
I0
sg17
I0
ssg18
I277410861
ssI32
(dp847
g6
(dp848
V10
p849
I0
sg9
I89
sg10
I15
sg11
I38
sg12
I3
sg13
I6
sg14
I0
sg15
I1
sg16
I0
sg17
I0
ssg18
I196091458
ssI2
(dp850
g6
(dp851
V10
p852
I0
sg9
I88
sg10
I15
sg11
I36
sg12
I3
sg13
I6
sg14
I0
sg15
I1
sg16
I0
sg17
I0
ssg18
I29381157
ssI4
(dp853
g6
(dp854
V10
p855
I0
sg9
I88
sg10
I15
sg11
I37
sg12
I3
sg13
I6
sg14
I0
sg15
I1
sg16
I0
sg17
I0
ssg18
I47134858
ssI8
(dp856
g6
(dp857
V10
p858
I0
sg9
I87
sg10
I15
sg11
I37
sg12
I3
sg13
I6
sg14
I0
sg15
I1
sg16
I0
sg17
I0
ssg18
I70584238
ssI16
(dp859
g6
(dp860
V10
p861
I0
sg9
I88
sg10
I16
sg11
I37
sg12
I3
sg13
I7
sg14
I0
sg15
I1
sg16
I0
sg17
I0
ssg18
I122154153
sssI20
(dp862
I64
(dp863
g6
(dp864
V10
p865
I0
sg9
I88
sg10
I15
sg11
I38
sg12
I3
sg13
I6
sg14
I0
sg15
I1
sg16
I0
sg17
I0
ssg18
I402938812
ssI32
(dp866
g6
(dp867
V10
p868
I0
sg9
I88
sg10
I15
sg11
I38
sg12
I3
sg13
I6
sg14
I0
sg15
I1
sg16
I0
sg17
I0
ssg18
I264372682
ssI2
(dp869
g6
(dp870
V10
p871
I0
sg9
I88
sg10
I16
sg11
I38
sg12
I3
sg13
I6
sg14
I0
sg15
I1
sg16
I0
sg17
I0
ssg18
I36753951
ssI4
(dp872
g6
(dp873
V10
p874
I0
sg9
I88
sg10
I15
sg11
I37
sg12
I3
sg13
I6
sg14
I0
sg15
I1
sg16
I0
sg17
I0
ssg18
I63929094
ssI8
(dp875
g6
(dp876
V10
p877
I0
sg9
I88
sg10
I15
sg11
I37
sg12
I3
sg13
I6
sg14
I0
sg15
I1
sg16
I0
sg17
I0
ssg18
I92022490
ssI16
(dp878
g6
(dp879
V10
p880
I0
sg9
I89
sg10
I16
sg11
I38
sg12
I3
sg13
I7
sg14
I0
sg15
I1
sg16
I0
sg17
I0
ssg18
I158023627
ssssI2048
(dp881
I50
(dp882
I64
(dp883
g6
(dp884
V11
p885
I0
sV10
p886
I0
sg9
I176
sg10
I31
sg11
I74
sg12
I6
sg13
I13
sg14
I1
sg15
I3
sg16
I0
sg17
I0
ssg18
I289828560
ssI32
(dp887
g6
(dp888
V11
p889
I0
sV10
p890
I0
sg9
I177
sg10
I30
sg11
I75
sg12
I6
sg13
I13
sg14
I1
sg15
I3
sg16
I0
sg17
I0
ssg18
I193208766
ssI2
(dp891
g6
(dp892
V11
p893
I0
sV10
p894
I0
sg9
I175
sg10
I32
sg11
I75
sg12
I6
sg13
I13
sg14
I1
sg15
I3
sg16
I0
sg17
I0
ssg18
I27414542
ssI4
(dp895
g6
(dp896
V11
p897
I0
sV10
p898
I0
sg9
I178
sg10
I32
sg11
I76
sg12
I6
sg13
I13
sg14
I1
sg15
I3
sg16
I0
sg17
I0
ssg18
I44916499
ssI8
(dp899
g6
(dp900
V11
p901
I0
sV10
p902
I0
sg9
I175
sg10
I31
sg11
I74
sg12
I6
sg13
I13
sg14
I1
sg15
I3
sg16
I0
sg17
I0
ssg18
I66518218
ssI16
(dp903
g6
(dp904
V11
p905
I0
sV10
p906
I0
sg9
I176
sg10
I31
sg11
I74
sg12
I6
sg13
I13
sg14
I1
sg15
I3
sg16
I0
sg17
I0
ssg18
I115610058
sssI20
(dp907
I64
(dp908
g6
(dp909
V11
p910
I0
sV10
p911
I0
sg9
I176
sg10
I31
sg11
I75
sg12
I6
sg13
I13
sg14
I1
sg15
I3
sg16
I0
sg17
I0
ssg18
I402059499
ssI32
(dp912
g6
(dp913
V11
p914
I0
sV10
p915
I0
sg9
I177
sg10
I32
sg11
I75
sg12
I6
sg13
I13
sg14
I1
sg15
I3
sg16
I0
sg17
I0
ssg18
I254541135
ssI2
(dp916
g6
(dp917
V11
p918
I0
sV10
p919
I0
sg9
I176
sg10
I31
sg11
I75
sg12
I6
sg13
I13
sg14
I1
sg15
I3
sg16
I0
sg17
I0
ssg18
I32645984
ssI4
(dp920
g6
(dp921
V11
p922
I0
sV10
p923
I0
sg9
I175
sg10
I30
sg11
I74
sg12
I6
sg13
I13
sg14
I1
sg15
I3
sg16
I0
sg17
I0
ssg18
I58003660
ssI8
(dp924
g6
(dp925
V11
p926
I0
sV10
p927
I0
sg9
I177
sg10
I32
sg11
I75
sg12
I6
sg13
I13
sg14
I1
sg15
I3
sg16
I0
sg17
I0
ssg18
I87427563
ssI16
(dp928
g6
(dp929
V11
p930
I0
sV10
p931
I0
sg9
I176
sg10
I32
sg11
I75
sg12
I6
sg13
I13
sg14
I1
sg15
I3
sg16
I0
sg17
I0
ssg18
I150066876
sssssS'background_sleep_depends-threads'
p932
(dp933
I1024
(dp934
I50
(dp935
I64
(dp936
g6
(dp937
V10
p938
I0
sg9
I87
sg10
I15
sg11
I37
sg12
I3
sg13
I6
sg14
I0
sg15
I1
sg16
I0
sg17
I0
ssg18
I284308000
ssI32
(dp939
g6
(dp940
V10
p941
I0
sg9
I88
sg10
I15
sg11
I37
sg12
I3
sg13
I6
sg14
I0
sg15
I1
sg16
I0
sg17
I0
ssg18
I201616393
ssI2
(dp942
g6
(dp943
V10
p944
I0
sg9
I87
sg10
I16
sg11
I37
sg12
I3
sg13
I6
sg14
I0
sg15
I1
sg16
I0
sg17
I0
ssg18
I29721434
ssI4
(dp945
g6
(dp946
V10
p947
I0
sg9
I88
sg10
I15
sg11
I37
sg12
I3
sg13
I6
sg14
I0
sg15
I1
sg16
I0
sg17
I0
ssg18
I48957071
ssI8
(dp948
g6
(dp949
V10
p950
I0
sg9
I88
sg10
I15
sg11
I37
sg12
I3
sg13
I6
sg14
I0
sg15
I1
sg16
I0
sg17
I0
ssg18
I70950611
ssI16
(dp951
g6
(dp952
V10
p953
I0
sg9
I89
sg10
I16
sg11
I38
sg12
I3
sg13
I6
sg14
I0
sg15
I1
sg16
I0
sg17
I0
ssg18
I123906577
sssI20
(dp954
I64
(dp955
g6
(dp956
V10
p957
I0
sg9
I88
sg10
I15
sg11
I37
sg12
I3
sg13
I6
sg14
I0
sg15
I1
sg16
I0
sg17
I0
ssg18
I406322799
ssI32
(dp958
g6
(dp959
V10
p960
I0
sg9
I88
sg10
I15
sg11
I38
sg12
I3
sg13
I6
sg14
I0
sg15
I1
sg16
I0
sg17
I0
ssg18
I267386190
ssI2
(dp961
g6
(dp962
V10
p963
I0
sg9
I87
sg10
I15
sg11
I38
sg12
I3
sg13
I6
sg14
I0
sg15
I1
sg16
I0
sg17
I0
ssg18
I37375919
ssI4
(dp964
g6
(dp965
V10
p966
I0
sg9
I87
sg10
I16
sg11
I37
sg12
I3
sg13
I6
sg14
I0
sg15
I1
sg16
I0
sg17
I0
ssg18
I64026070
ssI8
(dp967
g6
(dp968
V10
p969
I0
sg9
I88
sg10
I16
sg11
I37
sg12
I3
sg13
I6
sg14
I0
sg15
I1
sg16
I0
sg17
I0
ssg18
I95811276
ssI16
(dp970
g6
(dp971
V10
p972
I0
sg9
I89
sg10
I16
sg11
I37
sg12
I3
sg13
I6
sg14
I0
sg15
I1
sg16
I0
sg17
I0
ssg18
I161734121
ssssI2048
(dp973
I50
(dp974
I64
(dp975
g6
(dp976
V11
p977
I0
sV10
p978
I0
sg9
I176
sg10
I31
sg11
I75
sg12
I6
sg13
I13
sg14
I1
sg15
I3
sg16
I0
sg17
I0
ssg18
I295778996
ssI32
(dp979
g6
(dp980
V11
p981
I0
sV10
p982
I0
sg9
I175
sg10
I30
sg11
I74
sg12
I6
sg13
I13
sg14
I1
sg15
I3
sg16
I0
sg17
I0
ssg18
I196823220
ssI2
(dp983
g6
(dp984
V11
p985
I0
sV10
p986
I0
sg9
I177
sg10
I32
sg11
I75
sg12
I6
sg13
I13
sg14
I1
sg15
I3
sg16
I0
sg17
I0
ssg18
I28220384
ssI4
(dp987
g6
(dp988
V11
p989
I0
sV10
p990
I0
sg9
I176
sg10
I31
sg11
I75
sg12
I6
sg13
I13
sg14
I1
sg15
I3
sg16
I0
sg17
I0
ssg18
I46031311
ssI8
(dp991
g6
(dp992
V11
p993
I0
sV10
p994
I0
sg9
I176
sg10
I30
sg11
I74
sg12
I6
sg13
I13
sg14
I1
sg15
I3
sg16
I0
sg17
I0
ssg18
I67075532
ssI16
(dp995
g6
(dp996
V11
p997
I0
sV10
p998
I0
sg9
I176
sg10
I31
sg11
I75
sg12
I6
sg13
I13
sg14
I1
sg15
I3
sg16
I0
sg17
I0
ssg18
I115992663
sssI20
(dp999
I64
(dp1000
g6
(dp1001
V11
p1002
I0
sV10
p1003
I0
sg9
I176
sg10
I31
sg11
I75
sg12
I6
sg13
I13
sg14
I1
sg15
I3
sg16
I0
sg17
I0
ssg18
I410186234
ssI32
(dp1004
g6
(dp1005
V11
p1006
I0
sV10
p1007
I0
sg9
I174
sg10
I31
sg11
I74
sg12
I6
sg13
I13
sg14
I1
sg15
I3
sg16
I0
sg17
I0
ssg18
I258360185
ssI2
(dp1008
g6
(dp1009
V11
p1010
I0
sV10
p1011
I0
sg9
I177
sg10
I31
sg11
I75
sg12
I6
sg13
I13
sg14
I1
sg15
I3
sg16
I0
sg17
I0
ssg18
I34252280
ssI4
(dp1012
g6
(dp1013
V11
p1014
I0
sV10
p1015
I0
sg9
I175
sg10
I31
sg11
I74
sg12
I6
sg13
I13
sg14
I1
sg15
I3
sg16
I0
sg17
I0
ssg18
I58444114
ssI8
(dp1016
g6
(dp1017
V11
p1018
I0
sV10
p1019
I0
sg9
I177
sg10
I31
sg11
I74
sg12
I6
sg13
I13
sg14
I1
sg15
I3
sg16
I0
sg17
I0
ssg18
I88037766
ssI16
(dp1020
g6
(dp1021
V11
p1022
I0
sV10
p1023
I0
sg9
I176
sg10
I31
sg11
I75
sg12
I6
sg13
I13
sg14
I1
sg15
I3
sg16
I0
sg17
I0
ssg18
I154325209
sssssS'background_no_sleep'
p1024
(dp1025
I1024
(dp1026
I50
(dp1027
I64
(dp1028
g6
(dp1029
V10
p1030
I0
sg9
I87
sg10
I16
sg11
I37
sg12
I3
sg13
I7
sg14
I0
sg15
I1
sg16
I0
sg17
I0
ssg18
I261700405
ssI32
(dp1031
g6
(dp1032
V10
p1033
I0
sg9
I88
sg10
I15
sg11
I37
sg12
I3
sg13
I6
sg14
I0
sg15
I1
sg16
I0
sg17
I0
ssg18
I186662778
ssI2
(dp1034
g6
(dp1035
V10
p1036
I0
sg9
I87
sg10
I15
sg11
I37
sg12
I3
sg13
I7
sg14
I0
sg15
I1
sg16
I0
sg17
I0
ssg18
I23457416
ssI4
(dp1037
g6
(dp1038
V10
p1039
I0
sg9
I88
sg10
I16
sg11
I37
sg12
I3
sg13
I7
sg14
I0
sg15
I1
sg16
I0
sg17
I0
ssg18
I41138658
ssI8
(dp1040
g6
(dp1041
V10
p1042
I0
sg9
I86
sg10
I15
sg11
I36
sg12
I3
sg13
I6
sg14
I0
sg15
I1
sg16
I0
sg17
I0
ssg18
I64340348
ssI16
(dp1043
g6
(dp1044
V10
p1045
I0
sg9
I87
sg10
I15
sg11
I37
sg12
I3
sg13
I6
sg14
I0
sg15
I1
sg16
I0
sg17
I0
ssg18
I114047642
sssI20
(dp1046
I64
(dp1047
g6
(dp1048
V10
p1049
I0
sg9
I89
sg10
I15
sg11
I38
sg12
I3
sg13
I6
sg14
I0
sg15
I1
sg16
I0
sg17
I0
ssg18
I371397302
ssI32
(dp1050
g6
(dp1051
V10
p1052
I0
sg9
I88
sg10
I15
sg11
I37
sg12
I3
sg13
I6
sg14
I0
sg15
I1
sg16
I0
sg17
I0
ssg18
I245777648
ssI2
(dp1053
g6
(dp1054
V10
p1055
I0
sg9
I88
sg10
I15
sg11
I36
sg12
I3
sg13
I6
sg14
I0
sg15
I1
sg16
I0
sg17
I0
ssg18
I32536683
ssI4
(dp1056
g6
(dp1057
V10
p1058
I0
sg9
I87
sg10
I15
sg11
I37
sg12
I3
sg13
I6
sg14
I0
sg15
I1
sg16
I0
sg17
I0
ssg18
I56367514
ssI8
(dp1059
g6
(dp1060
V10
p1061
I0
sg9
I87
sg10
I15
sg11
I37
sg12
I3
sg13
I6
sg14
I0
sg15
I1
sg16
I0
sg17
I0
ssg18
I83010066
ssI16
(dp1062
g6
(dp1063
V10
p1064
I0
sg9
I86
sg10
I15
sg11
I37
sg12
I3
sg13
I6
sg14
I0
sg15
I1
sg16
I0
sg17
I0
ssg18
I146047113
ssssI2048
(dp1065
I50
(dp1066
I64
(dp1067
g6
(dp1068
V11
p1069
I0
sV10
p1070
I0
sg9
I176
sg10
I31
sg11
I74
sg12
I6
sg13
I13
sg14
I1
sg15
I3
sg16
I0
sg17
I0
ssg18
I272497089
ssI32
(dp1071
g6
(dp1072
V11
p1073
I0
sV10
p1074
I0
sg9
I175
sg10
I30
sg11
I74
sg12
I6
sg13
I13
sg14
I1
sg15
I3
sg16
I0
sg17
I0
ssg18
I185359002
ssI2
(dp1075
g6
(dp1076
V11
p1077
I0
sV10
p1078
I0
sg9
I175
sg10
I31
sg11
I73
sg12
I6
sg13
I13
sg14
I1
sg15
I3
sg16
I0
sg17
I0
ssg18
I21740972
ssI4
(dp1079
g6
(dp1080
V11
p1081
I0
sV10
p1082
I0
sg9
I176
sg10
I30
sg11
I74
sg12
I6
sg13
I13
sg14
I1
sg15
I3
sg16
I0
sg17
I0
ssg18
I38685047
ssI8
(dp1083
g6
(dp1084
V11
p1085
I0
sV10
p1086
I0
sg9
I176
sg10
I31
sg11
I75
sg12
I6
sg13
I13
sg14
I1
sg15
I3
sg16
I0
sg17
I0
ssg18
I59759491
ssI16
(dp1087
g6
(dp1088
V11
p1089
I0
sV10
p1090
I0
sg9
I176
sg10
I31
sg11
I74
sg12
I6
sg13
I13
sg14
I1
sg15
I3
sg16
I0
sg17
I0
ssg18
I109773610
sssI20
(dp1091
I64
(dp1092
g6
(dp1093
V11
p1094
I0
sV10
p1095
I0
sg9
I176
sg10
I31
sg11
I74
sg12
I6
sg13
I13
sg14
I1
sg15
I3
sg16
I0
sg17
I0
ssg18
I377693695
ssI32
(dp1096
g6
(dp1097
V11
p1098
I0
sV10
p1099
I0
sg9
I176
sg10
I30
sg11
I74
sg12
I6
sg13
I13
sg14
I1
sg15
I3
sg16
I0
sg17
I0
ssg18
I238692184
ssI2
(dp1100
g6
(dp1101
V11
p1102
I0
sV10
p1103
I0
sg9
I176
sg10
I31
sg11
I74
sg12
I6
sg13
I13
sg14
I1
sg15
I3
sg16
I0
sg17
I0
ssg18
I30342135
ssI4
(dp1104
g6
(dp1105
V11
p1106
I0
sV10
p1107
I0
sg9
I175
sg10
I31
sg11
I74
sg12
I6
sg13
I13
sg14
I1
sg15
I3
sg16
I0
sg17
I0
ssg18
I53008344
ssI8
(dp1108
g6
(dp1109
V11
p1110
I0
sV10
p1111
I0
sg9
I176
sg10
I31
sg11
I73
sg12
I6
sg13
I13
sg14
I1
sg15
I3
sg16
I0
sg17
I0
ssg18
I79049788
ssI16
(dp1112
g6
(dp1113
V11
p1114
I0
sV10
p1115
I0
sg9
I175
sg10
I31
sg11
I74
sg12
I6
sg13
I13
sg14
I1
sg15
I3
sg16
I0
sg17
I0
ssg18
I140701286
sssssS'threads-help-remove-original'
p1116
(dp1117
I1024
(dp1118
I50
(dp1119
I64
(dp1120
g6
(dp1121
V10
p1122
I0
sg9
I89
sg10
I15
sg11
I37
sg12
I3
sg13
I6
sg14
I0
sg15
I1
sg16
I0
sg17
I0
ssg18
I286210708
ssI32
(dp1123
g6
(dp1124
V10
p1125
I0
sg9
I88
sg10
I16
sg11
I37
sg12
I3
sg13
I6
sg14
I0
sg15
I1
sg16
I0
sg17
I0
ssg18
I199496971
ssI2
(dp1126
g6
(dp1127
V10
p1128
I0
sg9
I88
sg10
I15
sg11
I37
sg12
I3
sg13
I6
sg14
I0
sg15
I1
sg16
I0
sg17
I0
ssg18
I29788398
ssI4
(dp1129
g6
(dp1130
V10
p1131
I0
sg9
I87
sg10
I15
sg11
I37
sg12
I3
sg13
I6
sg14
I0
sg15
I1
sg16
I0
sg17
I0
ssg18
I49338890
ssI8
(dp1132
g6
(dp1133
V10
p1134
I0
sg9
I89
sg10
I15
sg11
I37
sg12
I3
sg13
I6
sg14
I0
sg15
I1
sg16
I0
sg17
I0
ssg18
I70512672
ssI16
(dp1135
g6
(dp1136
V10
p1137
I0
sg9
I88
sg10
I15
sg11
I37
sg12
I3
sg13
I6
sg14
I0
sg15
I1
sg16
I0
sg17
I0
ssg18
I123119724
sssI20
(dp1138
I64
(dp1139
g6
(dp1140
V10
p1141
I0
sg9
I88
sg10
I15
sg11
I38
sg12
I3
sg13
I6
sg14
I0
sg15
I1
sg16
I0
sg17
I0
ssg18
I409127805
ssI32
(dp1142
g6
(dp1143
V10
p1144
I0
sg9
I89
sg10
I15
sg11
I38
sg12
I3
sg13
I6
sg14
I0
sg15
I1
sg16
I0
sg17
I0
ssg18
I266456553
ssI2
(dp1145
g6
(dp1146
V10
p1147
I0
sg9
I87
sg10
I15
sg11
I36
sg12
I3
sg13
I6
sg14
I0
sg15
I1
sg16
I0
sg17
I0
ssg18
I37403962
ssI4
(dp1148
g6
(dp1149
V10
p1150
I0
sg9
I88
sg10
I15
sg11
I37
sg12
I3
sg13
I6
sg14
I0
sg15
I1
sg16
I0
sg17
I0
ssg18
I65532728
ssI8
(dp1151
g6
(dp1152
V10
p1153
I0
sg9
I88
sg10
I16
sg11
I37
sg12
I3
sg13
I6
sg14
I0
sg15
I1
sg16
I0
sg17
I0
ssg18
I94613612
ssI16
(dp1154
g6
(dp1155
V10
p1156
I0
sg9
I87
sg10
I15
sg11
I37
sg12
I3
sg13
I6
sg14
I0
sg15
I1
sg16
I0
sg17
I0
ssg18
I163871691
ssssI2048
(dp1157
I50
(dp1158
I64
(dp1159
g6
(dp1160
V11
p1161
I0
sV10
p1162
I0
sg9
I177
sg10
I31
sg11
I75
sg12
I6
sg13
I13
sg14
I1
sg15
I3
sg16
I0
sg17
I0
ssg18
I296716678
ssI32
(dp1163
g6
(dp1164
V11
p1165
I0
sV10
p1166
I0
sg9
I177
sg10
I31
sg11
I74
sg12
I6
sg13
I13
sg14
I1
sg15
I3
sg16
I0
sg17
I0
ssg18
I196937425
ssI2
(dp1167
g6
(dp1168
V11
p1169
I0
sV10
p1170
I0
sg9
I176
sg10
I31
sg11
I74
sg12
I6
sg13
I13
sg14
I1
sg15
I3
sg16
I0
sg17
I0
ssg18
I27720062
ssI4
(dp1171
g6
(dp1172
V11
p1173
I0
sV10
p1174
I0
sg9
I177
sg10
I31
sg11
I76
sg12
I6
sg13
I13
sg14
I1
sg15
I3
sg16
I0
sg17
I0
ssg18
I45095566
ssI8
(dp1175
g6
(dp1176
V11
p1177
I0
sV10
p1178
I0
sg9
I177
sg10
I31
sg11
I74
sg12
I6
sg13
I13
sg14
I1
sg15
I3
sg16
I0
sg17
I0
ssg18
I67731938
ssI16
(dp1179
g6
(dp1180
V11
p1181
I0
sV10
p1182
I0
sg9
I177
sg10
I32
sg11
I75
sg12
I6
sg13
I13
sg14
I1
sg15
I3
sg16
I0
sg17
I0
ssg18
I117694670
sssI20
(dp1183
I64
(dp1184
g6
(dp1185
V11
p1186
I0
sV10
p1187
I0
sg9
I176
sg10
I32
sg11
I75
sg12
I6
sg13
I13
sg14
I1
sg15
I3
sg16
I0
sg17
I0
ssg18
I409599287
ssI32
(dp1188
g6
(dp1189
V11
p1190
I0
sV10
p1191
I0
sg9
I178
sg10
I32
sg11
I76
sg12
I6
sg13
I13
sg14
I1
sg15
I3
sg16
I0
sg17
I0
ssg18
I257106828
ssI2
(dp1192
g6
(dp1193
V11
p1194
I0
sV10
p1195
I0
sg9
I177
sg10
I32
sg11
I76
sg12
I6
sg13
I13
sg14
I1
sg15
I3
sg16
I0
sg17
I0
ssg18
I33581651
ssI4
(dp1196
g6
(dp1197
V11
p1198
I0
sV10
p1199
I0
sg9
I179
sg10
I32
sg11
I76
sg12
I6
sg13
I13
sg14
I1
sg15
I3
sg16
I0
sg17
I0
ssg18
I58840303
ssI8
(dp1200
g6
(dp1201
V11
p1202
I0
sV10
p1203
I0
sg9
I177
sg10
I31
sg11
I75
sg12
I6
sg13
I13
sg14
I1
sg15
I3
sg16
I0
sg17
I0
ssg18
I88074993
ssI16
(dp1204
g6
(dp1205
V11
p1206
I0
sV10
p1207
I0
sg9
I176
sg10
I32
sg11
I75
sg12
I6
sg13
I13
sg14
I1
sg15
I3
sg16
I0
sg17
I0
ssg18
I154327364
sssssS'max-level-20'
p1208
(dp1209
I1024
(dp1210
I50
(dp1211
I64
(dp1212
g6
(dp1213
V10
p1214
I0
sg9
I87
sg10
I16
sg11
I37
sg12
I3
sg13
I7
sg14
I0
sg15
I1
sg16
I0
sg17
I0
ssg18
I278012748
ssI32
(dp1215
g6
(dp1216
V10
p1217
I0
sg9
I90
sg10
I16
sg11
I38
sg12
I3
sg13
I7
sg14
I0
sg15
I1
sg16
I0
sg17
I0
ssg18
I197303087
ssI2
(dp1218
g6
(dp1219
V10
p1220
I0
sg9
I88
sg10
I15
sg11
I37
sg12
I3
sg13
I6
sg14
I0
sg15
I1
sg16
I0
sg17
I0
ssg18
I30079391
ssI4
(dp1221
g6
(dp1222
V10
p1223
I0
sg9
I88
sg10
I16
sg11
I37
sg12
I3
sg13
I6
sg14
I0
sg15
I1
sg16
I0
sg17
I0
ssg18
I47797993
ssI8
(dp1224
g6
(dp1225
V10
p1226
I0
sg9
I88
sg10
I15
sg11
I37
sg12
I3
sg13
I6
sg14
I0
sg15
I1
sg16
I0
sg17
I0
ssg18
I69421345
ssI16
(dp1227
g6
(dp1228
V10
p1229
I0
sg9
I89
sg10
I15
sg11
I38
sg12
I3
sg13
I6
sg14
I0
sg15
I1
sg16
I0
sg17
I0
ssg18
I121171741
sssI20
(dp1230
I64
(dp1231
g6
(dp1232
V10
p1233
I0
sg9
I87
sg10
I15
sg11
I37
sg12
I3
sg13
I6
sg14
I0
sg15
I1
sg16
I0
sg17
I0
ssg18
I405164047
ssI32
(dp1234
g6
(dp1235
V10
p1236
I0
sg9
I88
sg10
I15
sg11
I37
sg12
I3
sg13
I6
sg14
I0
sg15
I1
sg16
I0
sg17
I0
ssg18
I266824605
ssI2
(dp1237
g6
(dp1238
V10
p1239
I0
sg9
I88
sg10
I15
sg11
I37
sg12
I3
sg13
I6
sg14
I0
sg15
I1
sg16
I0
sg17
I0
ssg18
I36425296
ssI4
(dp1240
g6
(dp1241
V10
p1242
I0
sg9
I86
sg10
I15
sg11
I36
sg12
I3
sg13
I6
sg14
I0
sg15
I1
sg16
I0
sg17
I0
ssg18
I63786431
ssI8
(dp1243
g6
(dp1244
V10
p1245
I0
sg9
I88
sg10
I15
sg11
I37
sg12
I3
sg13
I6
sg14
I0
sg15
I1
sg16
I0
sg17
I0
ssg18
I94125590
ssI16
(dp1246
g6
(dp1247
V10
p1248
I0
sg9
I87
sg10
I15
sg11
I37
sg12
I3
sg13
I6
sg14
I0
sg15
I1
sg16
I0
sg17
I0
ssg18
I161727485
ssssI2048
(dp1249
I50
(dp1250
I64
(dp1251
g6
(dp1252
V11
p1253
I0
sV10
p1254
I0
sg9
I177
sg10
I31
sg11
I75
sg12
I6
sg13
I13
sg14
I1
sg15
I3
sg16
I0
sg17
I0
ssg18
I287114146
ssI32
(dp1255
g6
(dp1256
V11
p1257
I0
sV10
p1258
I0
sg9
I177
sg10
I31
sg11
I75
sg12
I6
sg13
I13
sg14
I1
sg15
I3
sg16
I0
sg17
I0
ssg18
I192745581
ssI2
(dp1259
g6
(dp1260
V11
p1261
I0
sV10
p1262
I0
sg9
I176
sg10
I31
sg11
I75
sg12
I6
sg13
I13
sg14
I1
sg15
I3
sg16
I0
sg17
I0
ssg18
I27860866
ssI4
(dp1263
g6
(dp1264
V11
p1265
I0
sV10
p1266
I0
sg9
I177
sg10
I31
sg11
I75
sg12
I6
sg13
I13
sg14
I1
sg15
I3
sg16
I0
sg17
I0
ssg18
I45301793
ssI8
(dp1267
g6
(dp1268
V11
p1269
I0
sV10
p1270
I0
sg9
I176
sg10
I31
sg11
I74
sg12
I6
sg13
I13
sg14
I1
sg15
I3
sg16
I0
sg17
I0
ssg18
I66342126
ssI16
(dp1271
g6
(dp1272
V11
p1273
I0
sV10
p1274
I0
sg9
I177
sg10
I31
sg11
I75
sg12
I6
sg13
I13
sg14
I1
sg15
I3
sg16
I0
sg17
I0
ssg18
I116135332
sssI20
(dp1275
I64
(dp1276
g6
(dp1277
V11
p1278
I0
sV10
p1279
I0
sg9
I177
sg10
I31
sg11
I75
sg12
I6
sg13
I13
sg14
I1
sg15
I3
sg16
I0
sg17
I0
ssg18
I402860996
ssI32
(dp1280
g6
(dp1281
V11
p1282
I0
sV10
p1283
I0
sg9
I176
sg10
I31
sg11
I74
sg12
I6
sg13
I13
sg14
I1
sg15
I3
sg16
I0
sg17
I0
ssg18
I255464233
ssI2
(dp1284
g6
(dp1285
V11
p1286
I0
sV10
p1287
I0
sg9
I177
sg10
I31
sg11
I75
sg12
I6
sg13
I13
sg14
I1
sg15
I3
sg16
I0
sg17
I0
ssg18
I32963835
ssI4
(dp1288
g6
(dp1289
V11
p1290
I0
sV10
p1291
I0
sg9
I175
sg10
I30
sg11
I74
sg12
I6
sg13
I13
sg14
I1
sg15
I3
sg16
I0
sg17
I0
ssg18
I58272117
ssI8
(dp1292
g6
(dp1293
V11
p1294
I0
sV10
p1295
I0
sg9
I176
sg10
I30
sg11
I74
sg12
I6
sg13
I13
sg14
I1
sg15
I3
sg16
I0
sg17
I0
ssg18
I88500598
ssI16
(dp1296
g6
(dp1297
V11
p1298
I0
sV10
p1299
I0
sg9
I177
sg10
I31
sg11
I75
sg12
I6
sg13
I13
sg14
I1
sg15
I3
sg16
I0
sg17
I0
ssg18
I152373436
sssssS'threads-help-remove-log-number-threads'
p1300
(dp1301
I1024
(dp1302
I50
(dp1303
I64
(dp1304
g6
(dp1305
V10
p1306
I0
sg9
I89
sg10
I16
sg11
I37
sg12
I3
sg13
I6
sg14
I0
sg15
I1
sg16
I0
sg17
I0
ssg18
I149061743
ssI32
(dp1307
g6
(dp1308
V10
p1309
I0
sg9
I87
sg10
I15
sg11
I37
sg12
I3
sg13
I6
sg14
I0
sg15
I1
sg16
I0
sg17
I0
ssg18
I163358801
ssI2
(dp1310
g6
(dp1311
V10
p1312
I0
sg9
I89
sg10
I15
sg11
I38
sg12
I3
sg13
I6
sg14
I0
sg15
I1
sg16
I0
sg17
I0
ssg18
I29751774
ssI4
(dp1313
g6
(dp1314
V10
p1315
I0
sg9
I89
sg10
I15
sg11
I37
sg12
I3
sg13
I6
sg14
I0
sg15
I1
sg16
I0
sg17
I0
ssg18
I48951192
ssI8
(dp1316
g6
(dp1317
V10
p1318
I0
sg9
I88
sg10
I15
sg11
I37
sg12
I3
sg13
I6
sg14
I0
sg15
I1
sg16
I0
sg17
I0
ssg18
I65177591
ssI16
(dp1319
g6
(dp1320
V10
p1321
I0
sg9
I88
sg10
I16
sg11
I38
sg12
I3
sg13
I7
sg14
I0
sg15
I1
sg16
I0
sg17
I0
ssg18
I105042460
sssI20
(dp1322
I64
(dp1323
g6
(dp1324
V10
p1325
I0
sg9
I89
sg10
I16
sg11
I38
sg12
I3
sg13
I6
sg14
I0
sg15
I1
sg16
I0
sg17
I0
ssg18
I321549200
ssI32
(dp1326
g6
(dp1327
V10
p1328
I0
sg9
I87
sg10
I15
sg11
I37
sg12
I3
sg13
I6
sg14
I0
sg15
I1
sg16
I0
sg17
I0
ssg18
I227384638
ssI2
(dp1329
g6
(dp1330
V10
p1331
I0
sg9
I88
sg10
I16
sg11
I38
sg12
I3
sg13
I7
sg14
I0
sg15
I1
sg16
I0
sg17
I0
ssg18
I37128118
ssI4
(dp1332
g6
(dp1333
V10
p1334
I0
sg9
I88
sg10
I15
sg11
I37
sg12
I3
sg13
I7
sg14
I0
sg15
I1
sg16
I0
sg17
I0
ssg18
I65186891
ssI8
(dp1335
g6
(dp1336
V10
p1337
I0
sg9
I88
sg10
I15
sg11
I38
sg12
I3
sg13
I6
sg14
I0
sg15
I1
sg16
I0
sg17
I0
ssg18
I90216021
ssI16
(dp1338
g6
(dp1339
V10
p1340
I0
sg9
I89
sg10
I15
sg11
I37
sg12
I3
sg13
I6
sg14
I0
sg15
I1
sg16
I0
sg17
I0
ssg18
I147179009
ssssI2048
(dp1341
I50
(dp1342
I64
(dp1343
g6
(dp1344
V11
p1345
I0
sV10
p1346
I0
sg9
I176
sg10
I32
sg11
I74
sg12
I6
sg13
I14
sg14
I1
sg15
I3
sg16
I0
sg17
I0
ssg18
I215116428
ssI32
(dp1347
g6
(dp1348
V11
p1349
I0
sV10
p1350
I0
sg9
I176
sg10
I31
sg11
I73
sg12
I6
sg13
I13
sg14
I1
sg15
I3
sg16
I0
sg17
I0
ssg18
I157617389
ssI2
(dp1351
g6
(dp1352
V11
p1353
I0
sV10
p1354
I0
sg9
I176
sg10
I32
sg11
I75
sg12
I6
sg13
I13
sg14
I1
sg15
I3
sg16
I0
sg17
I0
ssg18
I27615839
ssI4
(dp1355
g6
(dp1356
V11
p1357
I0
sV10
p1358
I0
sg9
I177
sg10
I31
sg11
I75
sg12
I6
sg13
I13
sg14
I1
sg15
I3
sg16
I0
sg17
I0
ssg18
I45298071
ssI8
(dp1359
g6
(dp1360
V11
p1361
I0
sV10
p1362
I0
sg9
I177
sg10
I31
sg11
I75
sg12
I6
sg13
I13
sg14
I1
sg15
I3
sg16
I0
sg17
I0
ssg18
I63344176
ssI16
(dp1363
g6
(dp1364
V11
p1365
I0
sV10
p1366
I0
sg9
I176
sg10
I32
sg11
I75
sg12
I6
sg13
I13
sg14
I1
sg15
I3
sg16
I0
sg17
I0
ssg18
I102050559
sssI20
(dp1367
I64
(dp1368
g6
(dp1369
V11
p1370
I0
sV10
p1371
I0
sg9
I176
sg10
I32
sg11
I75
sg12
I6
sg13
I13
sg14
I1
sg15
I3
sg16
I0
sg17
I0
ssg18
I329947075
ssI32
(dp1372
g6
(dp1373
V11
p1374
I0
sV10
p1375
I0
sg9
I177
sg10
I31
sg11
I75
sg12
I6
sg13
I13
sg14
I1
sg15
I3
sg16
I0
sg17
I0
ssg18
I224734412
ssI2
(dp1376
g6
(dp1377
V11
p1378
I0
sV10
p1379
I0
sg9
I175
sg10
I30
sg11
I74
sg12
I6
sg13
I13
sg14
I1
sg15
I3
sg16
I0
sg17
I0
ssg18
I33837123
ssI4
(dp1380
g6
(dp1381
V11
p1382
I0
sV10
p1383
I0
sg9
I177
sg10
I31
sg11
I75
sg12
I6
sg13
I13
sg14
I1
sg15
I3
sg16
I0
sg17
I0
ssg18
I58520257
ssI8
(dp1384
g6
(dp1385
V11
p1386
I0
sV10
p1387
I0
sg9
I176
sg10
I31
sg11
I76
sg12
I6
sg13
I13
sg14
I1
sg15
I3
sg16
I0
sg17
I0
ssg18
I83166004
ssI16
(dp1388
g6
(dp1389
V11
p1390
I0
sV10
p1391
I0
sg9
I176
sg10
I31
sg11
I75
sg12
I6
sg13
I13
sg14
I1
sg15
I3
sg16
I0
sg17
I0
ssg18
I135859748
sssss.