(dp0
S'level-delete-original-0_5'
p1
(dp2
I256
(dp3
I60
(dp4
I64
(dp5
S'nodes'
p6
(dp7
V1
p8
I18
sV3
p9
I3
sV2
p10
I7
sV5
p11
I0
sV4
p12
I1
sV7
p13
I0
sV6
p14
I0
sV8
p15
I0
ssS'txs'
p16
I552317130
ssI32
(dp17
g6
(dp18
g8
I18
sg9
I3
sg10
I8
sg11
I0
sg12
I1
sg13
I0
sg14
I0
sg15
I0
ssg16
I433464978
ssI2
(dp19
g6
(dp20
g8
I17
sg9
I3
sg10
I7
sg11
I0
sg12
I1
sg13
I0
sg14
I0
sg15
I0
ssg16
I67293536
ssI4
(dp21
g6
(dp22
g8
I19
sg9
I3
sg10
I8
sg11
I0
sg12
I1
sg13
I0
sg14
I0
sg15
I0
ssg16
I95275740
ssI8
(dp23
g6
(dp24
g8
I19
sg9
I3
sg10
I8
sg11
I0
sg12
I1
sg13
I0
sg14
I0
sg15
I0
ssg16
I125845755
ssI16
(dp25
g6
(dp26
g8
I18
sg9
I3
sg10
I8
sg11
I0
sg12
I1
sg13
I0
sg14
I0
sg15
I0
ssg16
I246199765
sssI30
(dp27
I64
(dp28
g6
(dp29
g8
I18
sg9
I3
sg10
I8
sg11
I0
sg12
I1
sg13
I0
sg14
I0
sg15
I0
ssg16
I686962395
ssI32
(dp30
g6
(dp31
g8
I18
sg9
I3
sg10
I7
sg11
I0
sg12
I1
sg13
I0
sg14
I0
sg15
I0
ssg16
I537819423
ssI2
(dp32
g6
(dp33
g8
I19
sg9
I3
sg10
I8
sg11
I0
sg12
I1
sg13
I0
sg14
I0
sg15
I0
ssg16
I76025104
ssI4
(dp34
g6
(dp35
g8
I19
sg9
I3
sg10
I8
sg11
I0
sg12
I1
sg13
I0
sg14
I0
sg15
I0
ssg16
I143790974
ssI8
(dp36
g6
(dp37
g8
I19
sg9
I3
sg10
I8
sg11
I0
sg12
I1
sg13
I0
sg14
I0
sg15
I0
ssg16
I172166516
ssI16
(dp38
g6
(dp39
g8
I18
sg9
I3
sg10
I7
sg11
I0
sg12
I1
sg13
I0
sg14
I0
sg15
I0
ssg16
I336548133
ssssI65536
(dp40
I60
(dp41
I64
(dp42
g6
(dp43
V11
p44
I2
sV10
p45
I5
sV13
p46
I0
sV12
p47
I1
sV15
p48
I0
sV14
p49
I0
sV16
p50
I0
sg8
I4713
sg9
I841
sg10
I2003
sg11
I171
sg12
I360
sg13
I42
sg14
I85
sV9
p51
I10
sg15
I21
ssg16
I604749889
ssI32
(dp52
g6
(dp53
V11
p54
I2
sV10
p55
I5
sV13
p56
I0
sV12
p57
I1
sV15
p58
I0
sV14
p59
I0
sV16
p60
I0
sg8
I4704
sg9
I839
sg10
I2005
sg11
I171
sg12
I361
sg13
I42
sg14
I85
sg51
I10
sg15
I21
ssg16
I352277279
ssI2
(dp61
g6
(dp62
V11
p63
I2
sV10
p64
I5
sV13
p65
I0
sV12
p66
I1
sV15
p67
I0
sV14
p68
I0
sV16
p69
I0
sg8
I4696
sg9
I836
sg10
I1991
sg11
I171
sg12
I358
sg13
I42
sg14
I85
sg51
I10
sg15
I21
ssg16
I34766960
ssI4
(dp70
g6
(dp71
V11
p72
I2
sV10
p73
I5
sV13
p74
I0
sV12
p75
I1
sV15
p76
I0
sV14
p77
I0
sV16
p78
I0
sg8
I4708
sg9
I841
sg10
I2005
sg11
I171
sg12
I361
sg13
I42
sg14
I85
sg51
I10
sg15
I21
ssg16
I63757991
ssI8
(dp79
g6
(dp80
V11
p81
I2
sV10
p82
I5
sV13
p83
I0
sV12
p84
I1
sV15
p85
I0
sV14
p86
I0
sV16
p87
I0
sg8
I4700
sg9
I841
sg10
I1999
sg11
I171
sg12
I361
sg13
I42
sg14
I85
sg51
I10
sg15
I21
ssg16
I109818586
ssI16
(dp88
g6
(dp89
V11
p90
I2
sV10
p91
I5
sV13
p92
I0
sV12
p93
I1
sV15
p94
I0
sV14
p95
I0
sV16
p96
I0
sg8
I4710
sg9
I843
sg10
I2002
sg11
I171
sg12
I361
sg13
I42
sg14
I85
sg51
I10
sg15
I21
ssg16
I197162775
sssI30
(dp97
I64
(dp98
g6
(dp99
V11
p100
I2
sV10
p101
I5
sV13
p102
I0
sV12
p103
I1
sV15
p104
I0
sV14
p105
I0
sV16
p106
I0
sg8
I4705
sg9
I838
sg10
I1996
sg11
I171
sg12
I361
sg13
I42
sg14
I85
sg51
I10
sg15
I21
ssg16
I656537600
ssI32
(dp107
g6
(dp108
V11
p109
I2
sV10
p110
I5
sV13
p111
I0
sV12
p112
I1
sV15
p113
I0
sV14
p114
I0
sV16
p115
I0
sg8
I4709
sg9
I845
sg10
I2009
sg11
I171
sg12
I363
sg13
I42
sg14
I85
sg51
I10
sg15
I21
ssg16
I377491968
ssI2
(dp116
g6
(dp117
V11
p118
I2
sV10
p119
I5
sV13
p120
I0
sV12
p121
I1
sV15
p122
I0
sV14
p123
I0
sV16
p124
I0
sg8
I4681
sg9
I835
sg10
I1987
sg11
I170
sg12
I359
sg13
I42
sg14
I85
sg51
I10
sg15
I21
ssg16
I36918451
ssI4
(dp125
g6
(dp126
V11
p127
I2
sV10
p128
I5
sV13
p129
I0
sV12
p130
I1
sV15
p131
I0
sV14
p132
I0
sV16
p133
I0
sg8
I4696
sg9
I836
sg10
I1993
sg11
I171
sg12
I358
sg13
I42
sg14
I85
sg51
I10
sg15
I21
ssg16
I68979580
ssI8
(dp134
g6
(dp135
V11
p136
I2
sV10
p137
I5
sV13
p138
I0
sV12
p139
I1
sV15
p140
I0
sV14
p141
I0
sV16
p142
I0
sg8
I4697
sg9
I835
sg10
I1996
sg11
I171
sg12
I359
sg13
I42
sg14
I85
sg51
I10
sg15
I21
ssg16
I118324652
ssI16
(dp143
g6
(dp144
V11
p145
I2
sV10
p146
I5
sV13
p147
I0
sV12
p148
I1
sV15
p149
I0
sV14
p150
I0
sV16
p151
I0
sg8
I4708
sg9
I844
sg10
I2002
sg11
I171
sg12
I362
sg13
I42
sg14
I85
sg51
I10
sg15
I21
ssg16
I210828744
sssssS'level-delete-by-ratio-3_4'
p152
(dp153
I256
(dp154
I60
(dp155
I64
(dp156
g6
(dp157
g8
I18
sg9
I3
sg10
I7
sg11
I0
sg12
I1
sg13
I0
sg14
I0
sg15
I0
ssg16
I553407952
ssI32
(dp158
g6
(dp159
g8
I18
sg9
I3
sg10
I7
sg11
I0
sg12
I1
sg13
I0
sg14
I0
sg15
I0
ssg16
I441657646
ssI2
(dp160
g6
(dp161
g8
I18
sg9
I3
sg10
I7
sg11
I0
sg12
I1
sg13
I0
sg14
I0
sg15
I0
ssg16
I83300508
ssI4
(dp162
g6
(dp163
g8
I18
sg9
I3
sg10
I8
sg11
I0
sg12
I1
sg13
I0
sg14
I0
sg15
I0
ssg16
I129679881
ssI8
(dp164
g6
(dp165
g8
I18
sg9
I3
sg10
I7
sg11
I0
sg12
I1
sg13
I0
sg14
I0
sg15
I0
ssg16
I182662093
ssI16
(dp166
g6
(dp167
g8
I18
sg9
I3
sg10
I8
sg11
I0
sg12
I1
sg13
I0
sg14
I0
sg15
I0
ssg16
I307055864
sssI30
(dp168
I64
(dp169
g6
(dp170
g8
I18
sg9
I3
sg10
I7
sg11
I0
sg12
I1
sg13
I0
sg14
I0
sg15
I0
ssg16
I687834576
ssI32
(dp171
g6
(dp172
g8
I18
sg9
I3
sg10
I8
sg11
I0
sg12
I1
sg13
I0
sg14
I0
sg15
I0
ssg16
I543799031
ssI2
(dp173
g6
(dp174
g8
I18
sg9
I3
sg10
I7
sg11
I0
sg12
I1
sg13
I0
sg14
I0
sg15
I0
ssg16
I96781852
ssI4
(dp175
g6
(dp176
g8
I17
sg9
I3
sg10
I7
sg11
I0
sg12
I1
sg13
I0
sg14
I0
sg15
I0
ssg16
I156644976
ssI8
(dp177
g6
(dp178
g8
I18
sg9
I3
sg10
I7
sg11
I0
sg12
I1
sg13
I0
sg14
I0
sg15
I0
ssg16
I220611584
ssI16
(dp179
g6
(dp180
g8
I18
sg9
I3
sg10
I8
sg11
I0
sg12
I1
sg13
I0
sg14
I0
sg15
I0
ssg16
I366671886
ssssI65536
(dp181
I60
(dp182
I64
(dp183
g6
(dp184
V11
p185
I2
sV10
p186
I5
sV13
p187
I0
sV12
p188
I1
sV15
p189
I0
sV14
p190
I0
sV16
p191
I0
sg8
I4707
sg9
I844
sg10
I2000
sg11
I171
sg12
I362
sg13
I42
sg14
I85
sg51
I10
sg15
I21
ssg16
I605186499
ssI32
(dp192
g6
(dp193
V11
p194
I2
sV10
p195
I5
sV13
p196
I0
sV12
p197
I1
sV15
p198
I0
sV14
p199
I0
sV16
p200
I0
sg8
I4712
sg9
I844
sg10
I2006
sg11
I170
sg12
I360
sg13
I42
sg14
I85
sg51
I10
sg15
I21
ssg16
I351100589
ssI2
(dp201
g6
(dp202
V11
p203
I2
sV10
p204
I5
sV13
p205
I0
sV12
p206
I1
sV15
p207
I0
sV14
p208
I0
sV16
p209
I0
sg8
I4703
sg9
I837
sg10
I1996
sg11
I171
sg12
I361
sg13
I42
sg14
I85
sg51
I10
sg15
I21
ssg16
I34315958
ssI4
(dp210
g6
(dp211
V11
p212
I2
sV10
p213
I5
sV13
p214
I0
sV12
p215
I1
sV15
p216
I0
sV14
p217
I0
sV16
p218
I0
sg8
I4700
sg9
I840
sg10
I1998
sg11
I171
sg12
I362
sg13
I42
sg14
I85
sg51
I10
sg15
I21
ssg16
I64025659
ssI8
(dp219
g6
(dp220
V11
p221
I2
sV10
p222
I5
sV13
p223
I0
sV12
p224
I1
sV15
p225
I0
sV14
p226
I0
sV16
p227
I0
sg8
I4707
sg9
I843
sg10
I2002
sg11
I171
sg12
I360
sg13
I42
sg14
I85
sg51
I10
sg15
I21
ssg16
I108939822
ssI16
(dp228
g6
(dp229
V11
p230
I2
sV10
p231
I5
sV13
p232
I0
sV12
p233
I1
sV15
p234
I0
sV14
p235
I0
sV16
p236
I0
sg8
I4701
sg9
I842
sg10
I1998
sg11
I171
sg12
I363
sg13
I42
sg14
I85
sg51
I10
sg15
I21
ssg16
I196391867
sssI30
(dp237
I64
(dp238
g6
(dp239
V11
p240
I2
sV10
p241
I5
sV13
p242
I0
sV12
p243
I1
sV15
p244
I0
sV14
p245
I0
sV16
p246
I0
sg8
I4719
sg9
I845
sg10
I2007
sg11
I171
sg12
I361
sg13
I42
sg14
I85
sg51
I10
sg15
I21
ssg16
I652606947
ssI32
(dp247
g6
(dp248
V11
p249
I2
sV10
p250
I5
sV13
p251
I0
sV12
p252
I1
sV15
p253
I0
sV14
p254
I0
sV16
p255
I0
sg8
I4710
sg9
I844
sg10
I2010
sg11
I171
sg12
I362
sg13
I42
sg14
I85
sg51
I10
sg15
I21
ssg16
I378181196
ssI2
(dp256
g6
(dp257
V11
p258
I2
sV10
p259
I5
sV13
p260
I0
sV12
p261
I1
sV15
p262
I0
sV14
p263
I0
sV16
p264
I0
sg8
I4695
sg9
I836
sg10
I1993
sg11
I171
sg12
I360
sg13
I42
sg14
I85
sg51
I10
sg15
I21
ssg16
I37278519
ssI4
(dp265
g6
(dp266
V11
p267
I2
sV10
p268
I5
sV13
p269
I0
sV12
p270
I1
sV15
p271
I0
sV14
p272
I0
sV16
p273
I0
sg8
I4696
sg9
I839
sg10
I2000
sg11
I171
sg12
I362
sg13
I42
sg14
I85
sg51
I10
sg15
I21
ssg16
I67866002
ssI8
(dp274
g6
(dp275
V11
p276
I2
sV10
p277
I5
sV13
p278
I0
sV12
p279
I1
sV15
p280
I0
sV14
p281
I0
sV16
p282
I0
sg8
I4701
sg9
I840
sg10
I2002
sg11
I170
sg12
I360
sg13
I42
sg14
I85
sg51
I10
sg15
I21
ssg16
I119306417
ssI16
(dp283
g6
(dp284
V11
p285
I2
sV10
p286
I5
sV13
p287
I0
sV12
p288
I1
sV15
p289
I0
sV14
p290
I0
sV16
p291
I0
sg8
I4707
sg9
I842
sg10
I2001
sg11
I171
sg12
I360
sg13
I42
sg14
I85
sg51
I10
sg15
I21
ssg16
I211183251
sssssS'threads-help-remove-log-number-threads'
p292
(dp293
I256
(dp294
I60
(dp295
I64
(dp296
g6
(dp297
g8
I19
sg9
I3
sg10
I7
sg11
I0
sg12
I1
sg13
I0
sg14
I0
sg15
I0
ssg16
I557071879
ssI32
(dp298
g6
(dp299
g8
I18
sg9
I3
sg10
I8
sg11
I0
sg12
I1
sg13
I0
sg14
I0
sg15
I0
ssg16
I448800685
ssI2
(dp300
g6
(dp301
g8
I18
sg9
I3
sg10
I7
sg11
I0
sg12
I1
sg13
I0
sg14
I0
sg15
I0
ssg16
I84756549
ssI4
(dp302
g6
(dp303
g8
I18
sg9
I3
sg10
I7
sg11
I0
sg12
I1
sg13
I0
sg14
I0
sg15
I0
ssg16
I130910239
ssI8
(dp304
g6
(dp305
g8
I18
sg9
I3
sg10
I7
sg11
I0
sg12
I1
sg13
I0
sg14
I0
sg15
I0
ssg16
I183863450
ssI16
(dp306
g6
(dp307
g8
I18
sg9
I3
sg10
I7
sg11
I0
sg12
I1
sg13
I0
sg14
I0
sg15
I0
ssg16
I304631081
sssI30
(dp308
I64
(dp309
g6
(dp310
g8
I18
sg9
I3
sg10
I7
sg11
I0
sg12
I1
sg13
I0
sg14
I0
sg15
I0
ssg16
I700587443
ssI32
(dp311
g6
(dp312
g8
I18
sg9
I3
sg10
I8
sg11
I0
sg12
I1
sg13
I0
sg14
I0
sg15
I0
ssg16
I546557838
ssI2
(dp313
g6
(dp314
g8
I18
sg9
I3
sg10
I7
sg11
I0
sg12
I1
sg13
I0
sg14
I0
sg15
I0
ssg16
I97286265
ssI4
(dp315
g6
(dp316
g8
I18
sg9
I3
sg10
I7
sg11
I0
sg12
I1
sg13
I0
sg14
I0
sg15
I0
ssg16
I159382018
ssI8
(dp317
g6
(dp318
g8
I18
sg9
I3
sg10
I8
sg11
I0
sg12
I1
sg13
I0
sg14
I0
sg15
I0
ssg16
I219019129
ssI16
(dp319
g6
(dp320
g8
I18
sg9
I3
sg10
I7
sg11
I0
sg12
I1
sg13
I0
sg14
I0
sg15
I0
ssg16
I371744946
ssssI65536
(dp321
I60
(dp322
I64
(dp323
g6
(dp324
V11
p325
I2
sV10
p326
I5
sV13
p327
I0
sV12
p328
I1
sV15
p329
I0
sV14
p330
I0
sV16
p331
I0
sg8
I4710
sg9
I844
sg10
I2003
sg11
I171
sg12
I362
sg13
I42
sg14
I85
sg51
I10
sg15
I21
ssg16
I603895210
ssI32
(dp332
g6
(dp333
V11
p334
I2
sV10
p335
I5
sV13
p336
I0
sV12
p337
I1
sV15
p338
I0
sV14
p339
I0
sV16
p340
I0
sg8
I4710
sg9
I842
sg10
I2003
sg11
I171
sg12
I360
sg13
I42
sg14
I85
sg51
I10
sg15
I21
ssg16
I351754635
ssI2
(dp341
g6
(dp342
V11
p343
I2
sV10
p344
I5
sV13
p345
I0
sV12
p346
I1
sV15
p347
I0
sV14
p348
I0
sV16
p349
I0
sg8
I4696
sg9
I840
sg10
I1996
sg11
I171
sg12
I361
sg13
I42
sg14
I85
sg51
I10
sg15
I21
ssg16
I34918032
ssI4
(dp350
g6
(dp351
V11
p352
I2
sV10
p353
I5
sV13
p354
I0
sV12
p355
I1
sV15
p356
I0
sV14
p357
I0
sV16
p358
I0
sg8
I4707
sg9
I842
sg10
I2005
sg11
I171
sg12
I362
sg13
I42
sg14
I85
sg51
I10
sg15
I21
ssg16
I63808204
ssI8
(dp359
g6
(dp360
V11
p361
I2
sV10
p362
I5
sV13
p363
I0
sV12
p364
I1
sV15
p365
I0
sV14
p366
I0
sV16
p367
I0
sg8
I4715
sg9
I843
sg10
I2007
sg11
I171
sg12
I360
sg13
I42
sg14
I85
sg51
I10
sg15
I21
ssg16
I109182526
ssI16
(dp368
g6
(dp369
V11
p370
I2
sV10
p371
I5
sV13
p372
I0
sV12
p373
I1
sV15
p374
I0
sV14
p375
I0
sV16
p376
I0
sg8
I4702
sg9
I841
sg10
I2005
sg11
I171
sg12
I361
sg13
I42
sg14
I85
sg51
I10
sg15
I21
ssg16
I195785142
sssI30
(dp377
I64
(dp378
g6
(dp379
V11
p380
I2
sV10
p381
I5
sV13
p382
I0
sV12
p383
I1
sV15
p384
I0
sV14
p385
I0
sV16
p386
I0
sg8
I4709
sg9
I840
sg10
I2004
sg11
I171
sg12
I360
sg13
I42
sg14
I85
sg51
I10
sg15
I21
ssg16
I651731444
ssI32
(dp387
g6
(dp388
V11
p389
I2
sV10
p390
I5
sV13
p391
I0
sV12
p392
I1
sV15
p393
I0
sV14
p394
I0
sV16
p395
I0
sg8
I4712
sg9
I846
sg10
I2008
sg11
I171
sg12
I363
sg13
I42
sg14
I85
sg51
I10
sg15
I21
ssg16
I377960415
ssI2
(dp396
g6
(dp397
V11
p398
I2
sV10
p399
I5
sV13
p400
I0
sV12
p401
I1
sV15
p402
I0
sV14
p403
I0
sV16
p404
I0
sg8
I4686
sg9
I833
sg10
I1990
sg11
I171
sg12
I357
sg13
I42
sg14
I85
sg51
I10
sg15
I21
ssg16
I37546135
ssI4
(dp405
g6
(dp406
V11
p407
I2
sV10
p408
I5
sV13
p409
I0
sV12
p410
I1
sV15
p411
I0
sV14
p412
I0
sV16
p413
I0
sg8
I4694
sg9
I835
sg10
I1994
sg11
I171
sg12
I359
sg13
I42
sg14
I85
sg51
I10
sg15
I21
ssg16
I68644475
ssI8
(dp414
g6
(dp415
V11
p416
I2
sV10
p417
I5
sV13
p418
I0
sV12
p419
I1
sV15
p420
I0
sV14
p421
I0
sV16
p422
I0
sg8
I4708
sg9
I839
sg10
I2001
sg11
I171
sg12
I359
sg13
I42
sg14
I85
sg51
I10
sg15
I21
ssg16
I118400106
ssI16
(dp423
g6
(dp424
V11
p425
I2
sV10
p426
I5
sV13
p427
I0
sV12
p428
I1
sV15
p429
I0
sV14
p430
I0
sV16
p431
I0
sg8
I4702
sg9
I838
sg10
I2000
sg11
I171
sg12
I361
sg13
I42
sg14
I85
sg51
I10
sg15
I21
ssg16
I206583852
sssssS'dynamic-max-level'
p432
(dp433
I256
(dp434
I60
(dp435
I64
(dp436
g6
(dp437
g8
I17
sg9
I3
sg10
I7
sg11
I0
sg12
I1
sg13
I0
sg14
I0
sg15
I0
ssg16
I554342166
ssI32
(dp438
g6
(dp439
g8
I18
sg9
I3
sg10
I7
sg11
I0
sg12
I1
sg13
I0
sg14
I0
sg15
I0
ssg16
I446468400
ssI2
(dp440
g6
(dp441
g8
I18
sg9
I3
sg10
I7
sg11
I0
sg12
I1
sg13
I0
sg14
I0
sg15
I0
ssg16
I84659148
ssI4
(dp442
g6
(dp443
g8
I18
sg9
I3
sg10
I7
sg11
I0
sg12
I1
sg13
I0
sg14
I0
sg15
I0
ssg16
I131760708
ssI8
(dp444
g6
(dp445
g8
I18
sg9
I3
sg10
I7
sg11
I0
sg12
I1
sg13
I0
sg14
I0
sg15
I0
ssg16
I184397082
ssI16
(dp446
g6
(dp447
g8
I18
sg9
I3
sg10
I7
sg11
I0
sg12
I1
sg13
I0
sg14
I0
sg15
I0
ssg16
I307296515
sssI30
(dp448
I64
(dp449
g6
(dp450
g8
I18
sg9
I3
sg10
I7
sg11
I0
sg12
I1
sg13
I0
sg14
I0
sg15
I0
ssg16
I691498568
ssI32
(dp451
g6
(dp452
g8
I18
sg9
I3
sg10
I7
sg11
I0
sg12
I1
sg13
I0
sg14
I0
sg15
I0
ssg16
I545026635
ssI2
(dp453
g6
(dp454
g8
I18
sg9
I3
sg10
I7
sg11
I0
sg12
I1
sg13
I0
sg14
I0
sg15
I0
ssg16
I96326284
ssI4
(dp455
g6
(dp456
g8
I18
sg9
I3
sg10
I7
sg11
I0
sg12
I1
sg13
I0
sg14
I0
sg15
I0
ssg16
I159817517
ssI8
(dp457
g6
(dp458
g8
I18
sg9
I3
sg10
I8
sg11
I0
sg12
I1
sg13
I0
sg14
I0
sg15
I0
ssg16
I219991189
ssI16
(dp459
g6
(dp460
g8
I18
sg9
I3
sg10
I8
sg11
I0
sg12
I1
sg13
I0
sg14
I0
sg15
I0
ssg16
I368751702
ssssI65536
(dp461
I60
(dp462
I64
(dp463
g6
(dp464
V11
p465
I2
sV10
p466
I5
sV13
p467
I0
sV12
p468
I1
sV15
p469
I0
sV14
p470
I0
sV16
p471
I0
sg8
I4712
sg9
I840
sg10
I1998
sg11
I171
sg12
I360
sg13
I42
sg14
I85
sg51
I10
sg15
I21
ssg16
I602475039
ssI32
(dp472
g6
(dp473
V11
p474
I2
sV10
p475
I5
sV13
p476
I0
sV12
p477
I1
sV15
p478
I0
sV14
p479
I0
sV16
p480
I0
sg8
I4708
sg9
I838
sg10
I2001
sg11
I170
sg12
I358
sg13
I42
sg14
I85
sg51
I10
sg15
I21
ssg16
I351104377
ssI2
(dp481
g6
(dp482
V11
p483
I2
sV10
p484
I5
sV13
p485
I0
sV12
p486
I1
sV15
p487
I0
sV14
p488
I0
sV16
p489
I0
sg8
I4699
sg9
I836
sg10
I1993
sg11
I171
sg12
I361
sg13
I42
sg14
I85
sg51
I10
sg15
I21
ssg16
I34201768
ssI4
(dp490
g6
(dp491
V11
p492
I2
sV10
p493
I5
sV13
p494
I0
sV12
p495
I1
sV15
p496
I0
sV14
p497
I0
sV16
p498
I0
sg8
I4701
sg9
I838
sg10
I2001
sg11
I171
sg12
I358
sg13
I42
sg14
I85
sg51
I10
sg15
I21
ssg16
I63302687
ssI8
(dp499
g6
(dp500
V11
p501
I2
sV10
p502
I5
sV13
p503
I0
sV12
p504
I1
sV15
p505
I0
sV14
p506
I0
sV16
p507
I0
sg8
I4705
sg9
I843
sg10
I2003
sg11
I171
sg12
I360
sg13
I42
sg14
I85
sg51
I10
sg15
I21
ssg16
I107782487
ssI16
(dp508
g6
(dp509
V11
p510
I2
sV10
p511
I5
sV13
p512
I0
sV12
p513
I1
sV15
p514
I0
sV14
p515
I0
sV16
p516
I0
sg8
I4711
sg9
I843
sg10
I2007
sg11
I170
sg12
I361
sg13
I42
sg14
I85
sg51
I10
sg15
I21
ssg16
I197213985
sssI30
(dp517
I64
(dp518
g6
(dp519
V11
p520
I2
sV10
p521
I5
sV13
p522
I0
sV12
p523
I1
sV15
p524
I0
sV14
p525
I0
sV16
p526
I0
sg8
I4709
sg9
I842
sg10
I2007
sg11
I171
sg12
I360
sg13
I42
sg14
I85
sg51
I10
sg15
I21
ssg16
I658180544
ssI32
(dp527
g6
(dp528
V11
p529
I2
sV10
p530
I5
sV13
p531
I0
sV12
p532
I1
sV15
p533
I0
sV14
p534
I0
sV16
p535
I0
sg8
I4711
sg9
I844
sg10
I2007
sg11
I171
sg12
I361
sg13
I42
sg14
I85
sg51
I10
sg15
I21
ssg16
I379349416
ssI2
(dp536
g6
(dp537
V11
p538
I2
sV10
p539
I5
sV13
p540
I0
sV12
p541
I1
sV15
p542
I0
sV14
p543
I0
sV16
p544
I0
sg8
I4689
sg9
I834
sg10
I1986
sg11
I171
sg12
I359
sg13
I42
sg14
I85
sg51
I10
sg15
I21
ssg16
I36752484
ssI4
(dp545
g6
(dp546
V11
p547
I2
sV10
p548
I5
sV13
p549
I0
sV12
p550
I1
sV15
p551
I0
sV14
p552
I0
sV16
p553
I0
sg8
I4699
sg9
I838
sg10
I1999
sg11
I171
sg12
I360
sg13
I42
sg14
I85
sg51
I10
sg15
I21
ssg16
I68541412
ssI8
(dp554
g6
(dp555
V11
p556
I2
sV10
p557
I5
sV13
p558
I0
sV12
p559
I1
sV15
p560
I0
sV14
p561
I0
sV16
p562
I0
sg8
I4697
sg9
I837
sg10
I1992
sg11
I171
sg12
I359
sg13
I42
sg14
I85
sg51
I10
sg15
I21
ssg16
I119184295
ssI16
(dp563
g6
(dp564
V11
p565
I2
sV10
p566
I5
sV13
p567
I0
sV12
p568
I1
sV15
p569
I0
sV14
p570
I0
sV16
p571
I0
sg8
I4711
sg9
I845
sg10
I2006
sg11
I171
sg12
I361
sg13
I42
sg14
I85
sg51
I10
sg15
I21
ssg16
I211654087
sssssS'originl-rotating-skiplist'
p572
(dp573
I256
(dp574
I60
(dp575
I64
(dp576
g6
(dp577
g8
I18
sg9
I3
sg10
I7
sg11
I0
sg12
I1
sg13
I0
sg14
I0
sg15
I0
ssg16
I559102060
ssI32
(dp578
g6
(dp579
g8
I18
sg9
I3
sg10
I7
sg11
I0
sg12
I1
sg13
I0
sg14
I0
sg15
I0
ssg16
I448918412
ssI2
(dp580
g6
(dp581
g8
I18
sg9
I3
sg10
I7
sg11
I0
sg12
I1
sg13
I0
sg14
I0
sg15
I0
ssg16
I84510719
ssI4
(dp582
g6
(dp583
g8
I18
sg9
I3
sg10
I8
sg11
I0
sg12
I1
sg13
I0
sg14
I0
sg15
I0
ssg16
I131130119
ssI8
(dp584
g6
(dp585
g8
I18
sg9
I3
sg10
I8
sg11
I0
sg12
I1
sg13
I0
sg14
I0
sg15
I0
ssg16
I181820883
ssI16
(dp586
g6
(dp587
g8
I18
sg9
I3
sg10
I8
sg11
I0
sg12
I1
sg13
I0
sg14
I0
sg15
I0
ssg16
I304963670
sssI30
(dp588
I64
(dp589
g6
(dp590
g8
I18
sg9
I3
sg10
I7
sg11
I0
sg12
I1
sg13
I0
sg14
I0
sg15
I0
ssg16
I695754788
ssI32
(dp591
g6
(dp592
g8
I18
sg9
I3
sg10
I7
sg11
I0
sg12
I1
sg13
I0
sg14
I0
sg15
I0
ssg16
I540594728
ssI2
(dp593
g6
(dp594
g8
I18
sg9
I3
sg10
I7
sg11
I0
sg12
I1
sg13
I0
sg14
I0
sg15
I0
ssg16
I97884108
ssI4
(dp595
g6
(dp596
g8
I18
sg9
I3
sg10
I7
sg11
I0
sg12
I1
sg13
I0
sg14
I0
sg15
I0
ssg16
I159467019
ssI8
(dp597
g6
(dp598
g8
I18
sg9
I3
sg10
I7
sg11
I0
sg12
I1
sg13
I0
sg14
I0
sg15
I0
ssg16
I222588002
ssI16
(dp599
g6
(dp600
g8
I18
sg9
I3
sg10
I7
sg11
I0
sg12
I1
sg13
I0
sg14
I0
sg15
I0
ssg16
I368271426
ssssI65536
(dp601
I60
(dp602
I64
(dp603
g6
(dp604
V11
p605
I2
sV10
p606
I5
sV13
p607
I0
sV12
p608
I1
sV15
p609
I0
sV14
p610
I0
sV16
p611
I0
sg8
I4717
sg9
I843
sg10
I2003
sg11
I171
sg12
I360
sg13
I42
sg14
I85
sg51
I10
sg15
I21
ssg16
I604389756
ssI32
(dp612
g6
(dp613
V11
p614
I2
sV10
p615
I5
sV13
p616
I0
sV12
p617
I1
sV15
p618
I0
sV14
p619
I0
sV16
p620
I0
sg8
I4708
sg9
I839
sg10
I2002
sg11
I171
sg12
I361
sg13
I42
sg14
I85
sg51
I10
sg15
I21
ssg16
I351160541
ssI2
(dp621
g6
(dp622
V11
p623
I2
sV10
p624
I5
sV13
p625
I0
sV12
p626
I1
sV15
p627
I0
sV14
p628
I0
sV16
p629
I0
sg8
I4699
sg9
I840
sg10
I1997
sg11
I170
sg12
I361
sg13
I42
sg14
I85
sg51
I10
sg15
I21
ssg16
I34662995
ssI4
(dp630
g6
(dp631
V11
p632
I2
sV10
p633
I5
sV13
p634
I0
sV12
p635
I1
sV15
p636
I0
sV14
p637
I0
sV16
p638
I0
sg8
I4703
sg9
I842
sg10
I2000
sg11
I171
sg12
I360
sg13
I42
sg14
I85
sg51
I10
sg15
I21
ssg16
I63383239
ssI8
(dp639
g6
(dp640
V11
p641
I2
sV10
p642
I5
sV13
p643
I0
sV12
p644
I1
sV15
p645
I0
sV14
p646
I0
sV16
p647
I0
sg8
I4710
sg9
I842
sg10
I2006
sg11
I171
sg12
I362
sg13
I42
sg14
I85
sg51
I10
sg15
I21
ssg16
I110248999
ssI16
(dp648
g6
(dp649
V11
p650
I2
sV10
p651
I5
sV13
p652
I0
sV12
p653
I1
sV15
p654
I0
sV14
p655
I0
sV16
p656
I0
sg8
I4705
sg9
I840
sg10
I2001
sg11
I171
sg12
I361
sg13
I42
sg14
I85
sg51
I10
sg15
I21
ssg16
I194631405
sssI30
(dp657
I64
(dp658
g6
(dp659
V11
p660
I2
sV10
p661
I5
sV13
p662
I0
sV12
p663
I1
sV15
p664
I0
sV14
p665
I0
sV16
p666
I0
sg8
I4705
sg9
I844
sg10
I2003
sg11
I171
sg12
I362
sg13
I42
sg14
I85
sg51
I10
sg15
I21
ssg16
I661620744
ssI32
(dp667
g6
(dp668
V11
p669
I2
sV10
p670
I5
sV13
p671
I0
sV12
p672
I1
sV15
p673
I0
sV14
p674
I0
sV16
p675
I0
sg8
I4705
sg9
I841
sg10
I2002
sg11
I171
sg12
I360
sg13
I42
sg14
I85
sg51
I10
sg15
I21
ssg16
I379030402
ssI2
(dp676
g6
(dp677
V11
p678
I2
sV10
p679
I5
sV13
p680
I0
sV12
p681
I1
sV15
p682
I0
sV14
p683
I0
sV16
p684
I0
sg8
I4695
sg9
I837
sg10
I1995
sg11
I171
sg12
I361
sg13
I42
sg14
I85
sg51
I10
sg15
I21
ssg16
I36993008
ssI4
(dp685
g6
(dp686
V11
p687
I2
sV10
p688
I5
sV13
p689
I0
sV12
p690
I1
sV15
p691
I0
sV14
p692
I0
sV16
p693
I0
sg8
I4700
sg9
I843
sg10
I1997
sg11
I171
sg12
I361
sg13
I42
sg14
I85
sg51
I10
sg15
I21
ssg16
I68538918
ssI8
(dp694
g6
(dp695
V11
p696
I2
sV10
p697
I5
sV13
p698
I0
sV12
p699
I1
sV15
p700
I0
sV14
p701
I0
sV16
p702
I0
sg8
I4703
sg9
I838
sg10
I1996
sg11
I171
sg12
I359
sg13
I42
sg14
I85
sg51
I10
sg15
I21
ssg16
I118302082
ssI16
(dp703
g6
(dp704
V11
p705
I2
sV10
p706
I5
sV13
p707
I0
sV12
p708
I1
sV15
p709
I0
sV14
p710
I0
sV16
p711
I0
sg8
I4700
sg9
I843
sg10
I2000
sg11
I171
sg12
I363
sg13
I42
sg14
I85
sg51
I10
sg15
I21
ssg16
I208430246
sssssS'many-skiplists'
p712
(dp713
I256
(dp714
I60
(dp715
I64
(dp716
g6
(dp717
g8
I0
sg9
I0
sg10
I0
ssg16
I794297322
ssI32
(dp718
g6
(dp719
g8
I0
sg9
I0
sg10
I0
sg12
I0
ssg16
I481823535
ssI2
(dp720
g6
(dp721
g8
I18
sg9
I3
sg10
I7
sg11
I0
sg12
I1
sg13
I0
sg14
I0
sg15
I0
ssg16
I55680668
ssI4
(dp722
g6
(dp723
g8
I9
sg9
I1
sg10
I4
sg11
I0
sg12
I0
sg13
I0
sg14
I0
ssg16
I92182094
ssI8
(dp724
g6
(dp725
g8
I4
sg9
I0
sg10
I2
sg11
I0
sg12
I0
sg14
I0
ssg16
I158297454
ssI16
(dp726
g6
(dp727
g8
I1
sg9
I0
sg10
I0
sg11
I0
sg12
I0
ssg16
I284476518
sssI30
(dp728
I64
(dp729
g6
(dp730
g8
I0
sg9
I0
sg10
I0
ssg16
I942733333
ssI32
(dp731
g6
(dp732
g8
I0
sg9
I0
sg10
I0
sg12
I0
ssg16
I584038714
ssI2
(dp733
g6
(dp734
g8
I18
sg9
I3
sg10
I7
sg11
I0
sg12
I1
sg13
I0
sg14
I0
sg15
I0
ssg16
I68933946
ssI4
(dp735
g6
(dp736
g8
I9
sg9
I1
sg10
I3
sg11
I0
sg12
I0
sg13
I0
sg14
I0
ssg16
I114683158
ssI8
(dp737
g6
(dp738
g8
I4
sg9
I0
sg10
I2
sg11
I0
sg12
I0
sg14
I0
ssg16
I185215069
ssI16
(dp739
g6
(dp740
g8
I2
sg9
I0
sg10
I0
sg11
I0
sg12
I0
ssg16
I344597712
ssssI65536
(dp741
I60
(dp742
I64
(dp743
g6
(dp744
V11
p745
I0
sV10
p746
I0
sg8
I136
sg9
I24
sg10
I56
sg11
I5
sg12
I11
sg13
I1
sg14
I2
sg51
I0
sg15
I0
ssg16
I342827099
ssI32
(dp747
g6
(dp748
V11
p749
I0
sV10
p750
I0
sV12
p751
I0
sg8
I287
sg9
I51
sg10
I123
sg11
I10
sg12
I22
sg13
I2
sg14
I5
sg51
I0
sg15
I1
ssg16
I256800020
ssI2
(dp752
g6
(dp753
V11
p754
I2
sV10
p755
I5
sV13
p756
I0
sV12
p757
I1
sV15
p758
I0
sV14
p759
I0
sV16
p760
I0
sg8
I4690
sg9
I829
sg10
I1989
sg11
I170
sg12
I358
sg13
I42
sg14
I85
sg51
I10
sg15
I21
ssg16
I28516766
ssI4
(dp761
g6
(dp762
V11
p763
I1
sV10
p764
I2
sV13
p765
I0
sV12
p766
I0
sV15
p767
I0
sV14
p768
I0
sg8
I2349
sg9
I419
sg10
I997
sg11
I85
sg12
I180
sg13
I21
sg14
I42
sg51
I5
sg15
I10
ssg16
I52483764
ssI8
(dp769
g6
(dp770
V11
p771
I0
sV10
p772
I1
sV13
p773
I0
sV12
p774
I0
sV14
p775
I0
sg8
I1174
sg9
I207
sg10
I497
sg11
I42
sg12
I89
sg13
I10
sg14
I21
sg51
I2
sg15
I5
ssg16
I89375157
ssI16
(dp776
g6
(dp777
V11
p778
I0
sV10
p779
I0
sV13
p780
I0
sV12
p781
I0
sg8
I584
sg9
I104
sg10
I248
sg11
I21
sg12
I45
sg13
I5
sg14
I10
sg51
I1
sg15
I2
ssg16
I153693137
sssI30
(dp782
I64
(dp783
g6
(dp784
V11
p785
I0
sV10
p786
I0
sg8
I135
sg9
I23
sg10
I56
sg11
I5
sg12
I10
sg13
I1
sg14
I2
sg51
I0
sg15
I0
ssg16
I433540459
ssI32
(dp787
g6
(dp788
V11
p789
I0
sV10
p790
I0
sV12
p791
I0
sg8
I283
sg9
I50
sg10
I118
sg11
I10
sg12
I21
sg13
I2
sg14
I5
sg51
I0
sg15
I1
ssg16
I305446983
ssI2
(dp792
g6
(dp793
V11
p794
I2
sV10
p795
I5
sV13
p796
I0
sV12
p797
I1
sV15
p798
I0
sV14
p799
I0
sV16
p800
I0
sg8
I4698
sg9
I836
sg10
I1989
sg11
I171
sg12
I359
sg13
I42
sg14
I85
sg51
I10
sg15
I21
ssg16
I32552618
ssI4
(dp801
g6
(dp802
V11
p803
I1
sV10
p804
I2
sV13
p805
I0
sV12
p806
I0
sV15
p807
I0
sV14
p808
I0
sg8
I2346
sg9
I419
sg10
I997
sg11
I85
sg12
I179
sg13
I21
sg14
I42
sg51
I5
sg15
I10
ssg16
I59799338
ssI8
(dp809
g6
(dp810
V11
p811
I0
sV10
p812
I1
sV13
p813
I0
sV12
p814
I0
sV14
p815
I0
sg8
I1172
sg9
I209
sg10
I498
sg11
I42
sg12
I89
sg13
I10
sg14
I21
sg51
I2
sg15
I5
ssg16
I102789587
ssI16
(dp816
g6
(dp817
V11
p818
I0
sV10
p819
I0
sV13
p820
I0
sV12
p821
I0
sg8
I586
sg9
I103
sg10
I247
sg11
I21
sg12
I45
sg13
I5
sg14
I10
sg51
I1
sg15
I2
ssg16
I178092030
sssssS'level-delete-by-ratio-2_3'
p822
(dp823
I256
(dp824
I60
(dp825
I64
(dp826
g6
(dp827
g8
I18
sg9
I3
sg10
I7
sg11
I0
sg12
I1
sg13
I0
sg14
I0
sg15
I0
ssg16
I555390844
ssI32
(dp828
g6
(dp829
g8
I18
sg9
I3
sg10
I7
sg11
I0
sg12
I1
sg13
I0
sg14
I0
sg15
I0
ssg16
I441678360
ssI2
(dp830
g6
(dp831
g8
I18
sg9
I3
sg10
I7
sg11
I0
sg12
I1
sg13
I0
sg14
I0
sg15
I0
ssg16
I83131896
ssI4
(dp832
g6
(dp833
g8
I18
sg9
I3
sg10
I7
sg11
I0
sg12
I1
sg13
I0
sg14
I0
sg15
I0
ssg16
I129925064
ssI8
(dp834
g6
(dp835
g8
I18
sg9
I3
sg10
I7
sg11
I0
sg12
I1
sg13
I0
sg14
I0
sg15
I0
ssg16
I183261550
ssI16
(dp836
g6
(dp837
g8
I18
sg9
I3
sg10
I8
sg11
I0
sg12
I1
sg13
I0
sg14
I0
sg15
I0
ssg16
I302160084
sssI30
(dp838
I64
(dp839
g6
(dp840
g8
I18
sg9
I3
sg10
I7
sg11
I0
sg12
I1
sg13
I0
sg14
I0
sg15
I0
ssg16
I695341225
ssI32
(dp841
g6
(dp842
g8
I18
sg9
I3
sg10
I7
sg11
I0
sg12
I1
sg13
I0
sg14
I0
sg15
I0
ssg16
I541602426
ssI2
(dp843
g6
(dp844
g8
I18
sg9
I3
sg10
I8
sg11
I0
sg12
I1
sg13
I0
sg14
I0
sg15
I0
ssg16
I96966814
ssI4
(dp845
g6
(dp846
g8
I18
sg9
I3
sg10
I7
sg11
I0
sg12
I1
sg13
I0
sg14
I0
sg15
I0
ssg16
I157760889
ssI8
(dp847
g6
(dp848
g8
I18
sg9
I3
sg10
I7
sg11
I0
sg12
I1
sg13
I0
sg14
I0
sg15
I0
ssg16
I218282424
ssI16
(dp849
g6
(dp850
g8
I18
sg9
I3
sg10
I8
sg11
I0
sg12
I1
sg13
I0
sg14
I0
sg15
I0
ssg16
I369566108
ssssI65536
(dp851
I60
(dp852
I64
(dp853
g6
(dp854
V11
p855
I2
sV10
p856
I5
sV13
p857
I0
sV12
p858
I1
sV15
p859
I0
sV14
p860
I0
sV16
p861
I0
sg8
I4708
sg9
I841
sg10
I2000
sg11
I171
sg12
I360
sg13
I42
sg14
I85
sg51
I10
sg15
I21
ssg16
I603308757
ssI32
(dp862
g6
(dp863
V11
p864
I2
sV10
p865
I5
sV13
p866
I0
sV12
p867
I1
sV15
p868
I0
sV14
p869
I0
sV16
p870
I0
sg8
I4717
sg9
I843
sg10
I2008
sg11
I170
sg12
I362
sg13
I42
sg14
I85
sg51
I10
sg15
I21
ssg16
I352112614
ssI2
(dp871
g6
(dp872
V11
p873
I2
sV10
p874
I5
sV13
p875
I0
sV12
p876
I1
sV15
p877
I0
sV14
p878
I0
sV16
p879
I0
sg8
I4699
sg9
I837
sg10
I2002
sg11
I171
sg12
I359
sg13
I42
sg14
I85
sg51
I10
sg15
I21
ssg16
I34364073
ssI4
(dp880
g6
(dp881
V11
p882
I2
sV10
p883
I5
sV13
p884
I0
sV12
p885
I1
sV15
p886
I0
sV14
p887
I0
sV16
p888
I0
sg8
I4701
sg9
I841
sg10
I2006
sg11
I171
sg12
I360
sg13
I42
sg14
I85
sg51
I10
sg15
I21
ssg16
I63576906
ssI8
(dp889
g6
(dp890
V11
p891
I2
sV10
p892
I5
sV13
p893
I0
sV12
p894
I1
sV15
p895
I0
sV14
p896
I0
sV16
p897
I0
sg8
I4709
sg9
I842
sg10
I2004
sg11
I171
sg12
I361
sg13
I42
sg14
I85
sg51
I10
sg15
I21
ssg16
I109370571
ssI16
(dp898
g6
(dp899
V11
p900
I2
sV10
p901
I5
sV13
p902
I0
sV12
p903
I1
sV15
p904
I0
sV14
p905
I0
sV16
p906
I0
sg8
I4710
sg9
I840
sg10
I2001
sg11
I171
sg12
I361
sg13
I42
sg14
I85
sg51
I10
sg15
I21
ssg16
I196283582
sssI30
(dp907
I64
(dp908
g6
(dp909
V11
p910
I2
sV10
p911
I5
sV13
p912
I0
sV12
p913
I1
sV15
p914
I0
sV14
p915
I0
sV16
p916
I0
sg8
I4717
sg9
I844
sg10
I2008
sg11
I171
sg12
I361
sg13
I42
sg14
I85
sg51
I10
sg15
I21
ssg16
I652383523
ssI32
(dp917
g6
(dp918
V11
p919
I2
sV10
p920
I5
sV13
p921
I0
sV12
p922
I1
sV15
p923
I0
sV14
p924
I0
sV16
p925
I0
sg8
I4711
sg9
I847
sg10
I2010
sg11
I171
sg12
I360
sg13
I42
sg14
I85
sg51
I10
sg15
I21
ssg16
I378491319
ssI2
(dp926
g6
(dp927
V11
p928
I2
sV10
p929
I5
sV13
p930
I0
sV12
p931
I1
sV15
p932
I0
sV14
p933
I0
sV16
p934
I0
sg8
I4688
sg9
I838
sg10
I1991
sg11
I170
sg12
I360
sg13
I42
sg14
I85
sg51
I10
sg15
I21
ssg16
I36945695
ssI4
(dp935
g6
(dp936
V11
p937
I2
sV10
p938
I5
sV13
p939
I0
sV12
p940
I1
sV15
p941
I0
sV14
p942
I0
sV16
p943
I0
sg8
I4697
sg9
I835
sg10
I1998
sg11
I171
sg12
I359
sg13
I42
sg14
I85
sg51
I10
sg15
I21
ssg16
I69089178
ssI8
(dp944
g6
(dp945
V11
p946
I2
sV10
p947
I5
sV13
p948
I0
sV12
p949
I1
sV15
p950
I0
sV14
p951
I0
sV16
p952
I0
sg8
I4697
sg9
I840
sg10
I1997
sg11
I171
sg12
I359
sg13
I42
sg14
I85
sg51
I10
sg15
I21
ssg16
I118260202
ssI16
(dp953
g6
(dp954
V11
p955
I2
sV10
p956
I5
sV13
p957
I0
sV12
p958
I1
sV15
p959
I0
sV14
p960
I0
sV16
p961
I0
sg8
I4707
sg9
I844
sg10
I2006
sg11
I171
sg12
I362
sg13
I42
sg14
I85
sg51
I10
sg15
I21
ssg16
I210058548
sssssS'max-level-40'
p962
(dp963
I256
(dp964
I60
(dp965
I64
(dp966
g6
(dp967
g8
I18
sg9
I3
sg10
I7
sg11
I0
sg12
I1
sg13
I0
sg14
I0
sg15
I0
ssg16
I559322601
ssI32
(dp968
g6
(dp969
g8
I18
sg9
I3
sg10
I8
sg11
I0
sg12
I1
sg13
I0
sg14
I0
sg15
I0
ssg16
I449158693
ssI2
(dp970
g6
(dp971
g8
I18
sg9
I3
sg10
I7
sg11
I0
sg12
I1
sg13
I0
sg14
I0
sg15
I0
ssg16
I82715905
ssI4
(dp972
g6
(dp973
g8
I18
sg9
I3
sg10
I7
sg11
I0
sg12
I1
sg13
I0
sg14
I0
sg15
I0
ssg16
I129230192
ssI8
(dp974
g6
(dp975
g8
I18
sg9
I3
sg10
I8
sg11
I0
sg12
I1
sg13
I0
sg14
I0
sg15
I0
ssg16
I178828359
ssI16
(dp976
g6
(dp977
g8
I18
sg9
I3
sg10
I8
sg11
I0
sg12
I1
sg13
I0
sg14
I0
sg15
I0
ssg16
I301032864
sssI30
(dp978
I64
(dp979
g6
(dp980
g8
I18
sg9
I3
sg10
I7
sg11
I0
sg12
I1
sg13
I0
sg14
I0
sg15
I0
ssg16
I692007723
ssI32
(dp981
g6
(dp982
g8
I18
sg9
I3
sg10
I7
sg11
I0
sg12
I1
sg13
I0
sg14
I0
sg15
I0
ssg16
I541755946
ssI2
(dp983
g6
(dp984
g8
I18
sg9
I3
sg10
I7
sg11
I0
sg12
I1
sg13
I0
sg14
I0
sg15
I0
ssg16
I94799322
ssI4
(dp985
g6
(dp986
g8
I18
sg9
I3
sg10
I8
sg11
I0
sg12
I1
sg13
I0
sg14
I0
sg15
I0
ssg16
I155109684
ssI8
(dp987
g6
(dp988
g8
I18
sg9
I3
sg10
I7
sg11
I0
sg12
I1
sg13
I0
sg14
I0
sg15
I0
ssg16
I214970310
ssI16
(dp989
g6
(dp990
g8
I18
sg9
I3
sg10
I7
sg11
I0
sg12
I1
sg13
I0
sg14
I0
sg15
I0
ssg16
I352795181
ssssI65536
(dp991
I60
(dp992
I64
(dp993
g6
(dp994
V11
p995
I2
sV10
p996
I5
sV13
p997
I0
sV12
p998
I1
sV15
p999
I0
sV14
p1000
I0
sV16
p1001
I0
sg8
I4717
sg9
I846
sg10
I2009
sg11
I171
sg12
I361
sg13
I42
sg14
I85
sg51
I10
sg15
I21
ssg16
I591012114
ssI32
(dp1002
g6
(dp1003
V11
p1004
I2
sV10
p1005
I5
sV13
p1006
I0
sV12
p1007
I1
sV15
p1008
I0
sV14
p1009
I0
sV16
p1010
I0
sg8
I4710
sg9
I842
sg10
I2004
sg11
I170
sg12
I362
sg13
I42
sg14
I85
sg51
I10
sg15
I21
ssg16
I341251850
ssI2
(dp1011
g6
(dp1012
V11
p1013
I2
sV10
p1014
I5
sV13
p1015
I0
sV12
p1016
I1
sV15
p1017
I0
sV14
p1018
I0
sV16
p1019
I0
sg8
I4698
sg9
I838
sg10
I2000
sg11
I171
sg12
I361
sg13
I42
sg14
I85
sg51
I10
sg15
I21
ssg16
I32400524
ssI4
(dp1020
g6
(dp1021
V11
p1022
I2
sV10
p1023
I5
sV13
p1024
I0
sV12
p1025
I1
sV15
p1026
I0
sV14
p1027
I0
sV16
p1028
I0
sg8
I4702
sg9
I838
sg10
I1998
sg11
I171
sg12
I359
sg13
I42
sg14
I85
sg51
I10
sg15
I21
ssg16
I60701055
ssI8
(dp1029
g6
(dp1030
V11
p1031
I2
sV10
p1032
I5
sV13
p1033
I0
sV12
p1034
I1
sV15
p1035
I0
sV14
p1036
I0
sV16
p1037
I0
sg8
I4698
sg9
I841
sg10
I1998
sg11
I171
sg12
I362
sg13
I42
sg14
I85
sg51
I10
sg15
I21
ssg16
I104362869
ssI16
(dp1038
g6
(dp1039
V11
p1040
I2
sV10
p1041
I5
sV13
p1042
I0
sV12
p1043
I1
sV15
p1044
I0
sV14
p1045
I0
sV16
p1046
I0
sg8
I4705
sg9
I840
sg10
I2001
sg11
I171
sg12
I360
sg13
I42
sg14
I85
sg51
I10
sg15
I21
ssg16
I188342617
sssI30
(dp1047
I64
(dp1048
g6
(dp1049
V11
p1050
I2
sV10
p1051
I5
sV13
p1052
I0
sV12
p1053
I1
sV15
p1054
I0
sV14
p1055
I0
sV16
p1056
I0
sg8
I4707
sg9
I841
sg10
I2003
sg11
I171
sg12
I360
sg13
I42
sg14
I85
sg51
I10
sg15
I21
ssg16
I639538737
ssI32
(dp1057
g6
(dp1058
V11
p1059
I2
sV10
p1060
I5
sV13
p1061
I0
sV12
p1062
I1
sV15
p1063
I0
sV14
p1064
I0
sV16
p1065
I0
sg8
I4714
sg9
I845
sg10
I2009
sg11
I171
sg12
I362
sg13
I42
sg14
I85
sg51
I10
sg15
I21
ssg16
I365285538
ssI2
(dp1066
g6
(dp1067
V11
p1068
I2
sV10
p1069
I5
sV13
p1070
I0
sV12
p1071
I1
sV15
p1072
I0
sV14
p1073
I0
sV16
p1074
I0
sg8
I4695
sg9
I834
sg10
I1990
sg11
I171
sg12
I359
sg13
I42
sg14
I85
sg51
I10
sg15
I21
ssg16
I35050479
ssI4
(dp1075
g6
(dp1076
V11
p1077
I2
sV10
p1078
I5
sV13
p1079
I0
sV12
p1080
I1
sV15
p1081
I0
sV14
p1082
I0
sV16
p1083
I0
sg8
I4697
sg9
I837
sg10
I1995
sg11
I171
sg12
I359
sg13
I42
sg14
I85
sg51
I10
sg15
I21
ssg16
I65449578
ssI8
(dp1084
g6
(dp1085
V11
p1086
I2
sV10
p1087
I5
sV13
p1088
I0
sV12
p1089
I1
sV15
p1090
I0
sV14
p1091
I0
sV16
p1092
I0
sg8
I4696
sg9
I840
sg10
I1996
sg11
I171
sg12
I362
sg13
I42
sg14
I85
sg51
I10
sg15
I21
ssg16
I112798032
ssI16
(dp1093
g6
(dp1094
V11
p1095
I2
sV10
p1096
I5
sV13
p1097
I0
sV12
p1098
I1
sV15
p1099
I0
sV14
p1100
I0
sV16
p1101
I0
sg8
I4707
sg9
I840
sg10
I2002
sg11
I171
sg12
I360
sg13
I42
sg14
I85
sg51
I10
sg15
I21
ssg16
I200252494
sssssS'background_no_sleep'
p1102
(dp1103
I256
(dp1104
I60
(dp1105
I64
(dp1106
g6
(dp1107
g8
I18
sg9
I3
sg10
I7
sg11
I0
sg12
I1
sg13
I0
sg14
I0
sg15
I0
ssg16
I551664104
ssI32
(dp1108
g6
(dp1109
g8
I18
sg9
I3
sg10
I7
sg11
I0
sg12
I1
sg13
I0
sg14
I0
sg15
I0
ssg16
I445253245
ssI2
(dp1110
g6
(dp1111
g8
I18
sg9
I3
sg10
I7
sg11
I0
sg12
I1
sg13
I0
sg14
I0
sg15
I0
ssg16
I84034304
ssI4
(dp1112
g6
(dp1113
g8
I18
sg9
I3
sg10
I8
sg11
I0
sg12
I1
sg13
I0
sg14
I0
sg15
I0
ssg16
I130729157
ssI8
(dp1114
g6
(dp1115
g8
I18
sg9
I3
sg10
I8
sg11
I0
sg12
I1
sg13
I0
sg14
I0
sg15
I0
ssg16
I184466885
ssI16
(dp1116
g6
(dp1117
g8
I18
sg9
I3
sg10
I7
sg11
I0
sg12
I1
sg13
I0
sg14
I0
sg15
I0
ssg16
I307869758
sssI30
(dp1118
I64
(dp1119
g6
(dp1120
g8
I18
sg9
I3
sg10
I7
sg11
I0
sg12
I1
sg13
I0
sg14
I0
sg15
I0
ssg16
I693867859
ssI32
(dp1121
g6
(dp1122
g8
I18
sg9
I3
sg10
I7
sg11
I0
sg12
I1
sg13
I0
sg14
I0
sg15
I0
ssg16
I546505801
ssI2
(dp1123
g6
(dp1124
g8
I18
sg9
I3
sg10
I8
sg11
I0
sg12
I1
sg13
I0
sg14
I0
sg15
I0
ssg16
I99337178
ssI4
(dp1125
g6
(dp1126
g8
I18
sg9
I3
sg10
I8
sg11
I0
sg12
I1
sg13
I0
sg14
I0
sg15
I0
ssg16
I157371460
ssI8
(dp1127
g6
(dp1128
g8
I17
sg9
I3
sg10
I7
sg11
I0
sg12
I1
sg13
I0
sg14
I0
sg15
I0
ssg16
I221154721
ssI16
(dp1129
g6
(dp1130
g8
I18
sg9
I3
sg10
I7
sg11
I0
sg12
I1
sg13
I0
sg14
I0
sg15
I0
ssg16
I369654834
ssssI65536
(dp1131
I60
(dp1132
I64
(dp1133
g6
(dp1134
V11
p1135
I2
sV10
p1136
I5
sV13
p1137
I0
sV12
p1138
I1
sV15
p1139
I0
sV14
p1140
I0
sV16
p1141
I0
sg8
I4718
sg9
I840
sg10
I2006
sg11
I171
sg12
I362
sg13
I42
sg14
I85
sg51
I10
sg15
I21
ssg16
I601637446
ssI32
(dp1142
g6
(dp1143
V11
p1144
I2
sV10
p1145
I5
sV13
p1146
I0
sV12
p1147
I1
sV15
p1148
I0
sV14
p1149
I0
sV16
p1150
I0
sg8
I4708
sg9
I841
sg10
I2002
sg11
I171
sg12
I361
sg13
I42
sg14
I85
sg51
I10
sg15
I21
ssg16
I350758603
ssI2
(dp1151
g6
(dp1152
V11
p1153
I2
sV10
p1154
I5
sV13
p1155
I0
sV12
p1156
I1
sV15
p1157
I0
sV14
p1158
I0
sV16
p1159
I0
sg8
I4696
sg9
I836
sg10
I1996
sg11
I171
sg12
I360
sg13
I42
sg14
I85
sg51
I10
sg15
I21
ssg16
I34308860
ssI4
(dp1160
g6
(dp1161
V11
p1162
I2
sV10
p1163
I5
sV13
p1164
I0
sV12
p1165
I1
sV15
p1166
I0
sV14
p1167
I0
sV16
p1168
I0
sg8
I4699
sg9
I838
sg10
I1993
sg11
I171
sg12
I360
sg13
I42
sg14
I85
sg51
I10
sg15
I21
ssg16
I63707954
ssI8
(dp1169
g6
(dp1170
V11
p1171
I2
sV10
p1172
I5
sV13
p1173
I0
sV12
p1174
I1
sV15
p1175
I0
sV14
p1176
I0
sV16
p1177
I0
sg8
I4704
sg9
I841
sg10
I1998
sg11
I171
sg12
I361
sg13
I42
sg14
I85
sg51
I10
sg15
I21
ssg16
I108975004
ssI16
(dp1178
g6
(dp1179
V11
p1180
I2
sV10
p1181
I5
sV13
p1182
I0
sV12
p1183
I1
sV15
p1184
I0
sV14
p1185
I0
sV16
p1186
I0
sg8
I4691
sg9
I840
sg10
I1995
sg11
I171
sg12
I359
sg13
I42
sg14
I85
sg51
I10
sg15
I21
ssg16
I194049427
sssI30
(dp1187
I64
(dp1188
g6
(dp1189
V11
p1190
I2
sV10
p1191
I5
sV13
p1192
I0
sV12
p1193
I1
sV15
p1194
I0
sV14
p1195
I0
sV16
p1196
I0
sg8
I4704
sg9
I837
sg10
I2002
sg11
I171
sg12
I360
sg13
I42
sg14
I85
sg51
I10
sg15
I21
ssg16
I656461350
ssI32
(dp1197
g6
(dp1198
V11
p1199
I2
sV10
p1200
I5
sV13
p1201
I0
sV12
p1202
I1
sV15
p1203
I0
sV14
p1204
I0
sV16
p1205
I0
sg8
I4709
sg9
I840
sg10
I2006
sg11
I171
sg12
I360
sg13
I42
sg14
I85
sg51
I10
sg15
I21
ssg16
I376707711
ssI2
(dp1206
g6
(dp1207
V11
p1208
I2
sV10
p1209
I5
sV13
p1210
I0
sV12
p1211
I1
sV15
p1212
I0
sV14
p1213
I0
sV16
p1214
I0
sg8
I4695
sg9
I838
sg10
I1991
sg11
I170
sg12
I361
sg13
I42
sg14
I85
sg51
I10
sg15
I21
ssg16
I36975872
ssI4
(dp1215
g6
(dp1216
V11
p1217
I2
sV10
p1218
I5
sV13
p1219
I0
sV12
p1220
I1
sV15
p1221
I0
sV14
p1222
I0
sV16
p1223
I0
sg8
I4697
sg9
I837
sg10
I1993
sg11
I171
sg12
I360
sg13
I42
sg14
I85
sg51
I10
sg15
I21
ssg16
I68156728
ssI8
(dp1224
g6
(dp1225
V11
p1226
I2
sV10
p1227
I5
sV13
p1228
I0
sV12
p1229
I1
sV15
p1230
I0
sV14
p1231
I0
sV16
p1232
I0
sg8
I4704
sg9
I838
sg10
I1999
sg11
I171
sg12
I360
sg13
I42
sg14
I85
sg51
I10
sg15
I21
ssg16
I118086196
ssI16
(dp1233
g6
(dp1234
V11
p1235
I2
sV10
p1236
I5
sV13
p1237
I0
sV12
p1238
I1
sV15
p1239
I0
sV14
p1240
I0
sV16
p1241
I0
sg8
I4701
sg9
I837
sg10
I2001
sg11
I171
sg12
I359
sg13
I42
sg14
I85
sg51
I10
sg15
I21
ssg16
I208227902
sssssS'max-level-30'
p1242
(dp1243
I256
(dp1244
I60
(dp1245
I64
(dp1246
g6
(dp1247
g8
I18
sg9
I3
sg10
I7
sg11
I0
sg12
I1
sg13
I0
sg14
I0
sg15
I0
ssg16
I559412590
ssI32
(dp1248
g6
(dp1249
g8
I18
sg9
I3
sg10
I7
sg11
I0
sg12
I1
sg13
I0
sg14
I0
sg15
I0
ssg16
I447547892
ssI2
(dp1250
g6
(dp1251
g8
I18
sg9
I3
sg10
I7
sg11
I0
sg12
I1
sg13
I0
sg14
I0
sg15
I0
ssg16
I83092474
ssI4
(dp1252
g6
(dp1253
g8
I18
sg9
I3
sg10
I8
sg11
I0
sg12
I1
sg13
I0
sg14
I0
sg15
I0
ssg16
I129050463
ssI8
(dp1254
g6
(dp1255
g8
I18
sg9
I3
sg10
I7
sg11
I0
sg12
I1
sg13
I0
sg14
I0
sg15
I0
ssg16
I178603953
ssI16
(dp1256
g6
(dp1257
g8
I18
sg9
I3
sg10
I7
sg11
I0
sg12
I1
sg13
I0
sg14
I0
sg15
I0
ssg16
I299551828
sssI30
(dp1258
I64
(dp1259
g6
(dp1260
g8
I18
sg9
I3
sg10
I7
sg11
I0
sg12
I1
sg13
I0
sg14
I0
sg15
I0
ssg16
I695665087
ssI32
(dp1261
g6
(dp1262
g8
I18
sg9
I3
sg10
I7
sg11
I0
sg12
I1
sg13
I0
sg14
I0
sg15
I0
ssg16
I536978661
ssI2
(dp1263
g6
(dp1264
g8
I18
sg9
I3
sg10
I7
sg11
I0
sg12
I1
sg13
I0
sg14
I0
sg15
I0
ssg16
I93556218
ssI4
(dp1265
g6
(dp1266
g8
I18
sg9
I3
sg10
I7
sg11
I0
sg12
I1
sg13
I0
sg14
I0
sg15
I0
ssg16
I155944937
ssI8
(dp1267
g6
(dp1268
g8
I18
sg9
I3
sg10
I8
sg11
I0
sg12
I1
sg13
I0
sg14
I0
sg15
I0
ssg16
I216390034
ssI16
(dp1269
g6
(dp1270
g8
I18
sg9
I3
sg10
I7
sg11
I0
sg12
I1
sg13
I0
sg14
I0
sg15
I0
ssg16
I362697826
ssssI65536
(dp1271
I60
(dp1272
I64
(dp1273
g6
(dp1274
V11
p1275
I2
sV10
p1276
I5
sV13
p1277
I0
sV12
p1278
I1
sV15
p1279
I0
sV14
p1280
I0
sV16
p1281
I0
sg8
I4708
sg9
I839
sg10
I2002
sg11
I171
sg12
I360
sg13
I42
sg14
I85
sg51
I10
sg15
I21
ssg16
I594788166
ssI32
(dp1282
g6
(dp1283
V11
p1284
I2
sV10
p1285
I5
sV13
p1286
I0
sV12
p1287
I1
sV15
p1288
I0
sV14
p1289
I0
sV16
p1290
I0
sg8
I4708
sg9
I837
sg10
I2000
sg11
I171
sg12
I360
sg13
I42
sg14
I85
sg51
I10
sg15
I21
ssg16
I344163262
ssI2
(dp1291
g6
(dp1292
V11
p1293
I2
sV10
p1294
I5
sV13
p1295
I0
sV12
p1296
I1
sV15
p1297
I0
sV14
p1298
I0
sV16
p1299
I0
sg8
I4695
sg9
I836
sg10
I1994
sg11
I171
sg12
I360
sg13
I42
sg14
I85
sg51
I10
sg15
I21
ssg16
I33210695
ssI4
(dp1300
g6
(dp1301
V11
p1302
I2
sV10
p1303
I5
sV13
p1304
I0
sV12
p1305
I1
sV15
p1306
I0
sV14
p1307
I0
sV16
p1308
I0
sg8
I4701
sg9
I838
sg10
I1997
sg11
I171
sg12
I360
sg13
I42
sg14
I85
sg51
I10
sg15
I21
ssg16
I61668611
ssI8
(dp1309
g6
(dp1310
V11
p1311
I2
sV10
p1312
I5
sV13
p1313
I0
sV12
p1314
I1
sV15
p1315
I0
sV14
p1316
I0
sV16
p1317
I0
sg8
I4706
sg9
I844
sg10
I2003
sg11
I171
sg12
I360
sg13
I42
sg14
I85
sg51
I10
sg15
I21
ssg16
I106619578
ssI16
(dp1318
g6
(dp1319
V11
p1320
I2
sV10
p1321
I5
sV13
p1322
I0
sV12
p1323
I1
sV15
p1324
I0
sV14
p1325
I0
sV16
p1326
I0
sg8
I4709
sg9
I844
sg10
I2007
sg11
I171
sg12
I361
sg13
I42
sg14
I85
sg51
I10
sg15
I21
ssg16
I192025993
sssI30
(dp1327
I64
(dp1328
g6
(dp1329
V11
p1330
I2
sV10
p1331
I5
sV13
p1332
I0
sV12
p1333
I1
sV15
p1334
I0
sV14
p1335
I0
sV16
p1336
I0
sg8
I4707
sg9
I839
sg10
I2001
sg11
I171
sg12
I360
sg13
I42
sg14
I85
sg51
I10
sg15
I21
ssg16
I644258011
ssI32
(dp1337
g6
(dp1338
V11
p1339
I2
sV10
p1340
I5
sV13
p1341
I0
sV12
p1342
I1
sV15
p1343
I0
sV14
p1344
I0
sV16
p1345
I0
sg8
I4705
sg9
I841
sg10
I2003
sg11
I171
sg12
I360
sg13
I42
sg14
I85
sg51
I10
sg15
I21
ssg16
I370915034
ssI2
(dp1346
g6
(dp1347
V11
p1348
I2
sV10
p1349
I5
sV13
p1350
I0
sV12
p1351
I1
sV15
p1352
I0
sV14
p1353
I0
sV16
p1354
I0
sg8
I4693
sg9
I835
sg10
I1993
sg11
I171
sg12
I360
sg13
I42
sg14
I85
sg51
I10
sg15
I21
ssg16
I36229903
ssI4
(dp1355
g6
(dp1356
V11
p1357
I2
sV10
p1358
I5
sV13
p1359
I0
sV12
p1360
I1
sV15
p1361
I0
sV14
p1362
I0
sV16
p1363
I0
sg8
I4697
sg9
I839
sg10
I2000
sg11
I171
sg12
I360
sg13
I42
sg14
I85
sg51
I10
sg15
I21
ssg16
I65784785
ssI8
(dp1364
g6
(dp1365
V11
p1366
I2
sV10
p1367
I5
sV13
p1368
I0
sV12
p1369
I1
sV15
p1370
I0
sV14
p1371
I0
sV16
p1372
I0
sg8
I4707
sg9
I842
sg10
I2001
sg11
I171
sg12
I362
sg13
I42
sg14
I85
sg51
I10
sg15
I21
ssg16
I114742790
ssI16
(dp1373
g6
(dp1374
V11
p1375
I2
sV10
p1376
I5
sV13
p1377
I0
sV12
p1378
I1
sV15
p1379
I0
sV14
p1380
I0
sV16
p1381
I0
sg8
I4710
sg9
I846
sg10
I2009
sg11
I171
sg12
I363
sg13
I42
sg14
I85
sg51
I10
sg15
I21
ssg16
I205568864
sssssS'level-delete-original-5'
p1382
(dp1383
I256
(dp1384
I60
(dp1385
I64
(dp1386
g6
(dp1387
g8
I18
sg9
I3
sg10
I7
sg11
I0
sg12
I1
sg13
I0
sg14
I0
sg15
I0
ssg16
I555444392
ssI32
(dp1388
g6
(dp1389
g8
I18
sg9
I3
sg10
I7
sg11
I0
sg12
I1
sg13
I0
sg14
I0
sg15
I0
ssg16
I445236664
ssI2
(dp1390
g6
(dp1391
g8
I18
sg9
I3
sg10
I7
sg11
I0
sg12
I1
sg13
I0
sg14
I0
sg15
I0
ssg16
I83459201
ssI4
(dp1392
g6
(dp1393
g8
I18
sg9
I3
sg10
I8
sg11
I0
sg12
I1
sg13
I0
sg14
I0
sg15
I0
ssg16
I129631731
ssI8
(dp1394
g6
(dp1395
g8
I18
sg9
I3
sg10
I8
sg11
I0
sg12
I1
sg13
I0
sg14
I0
sg15
I0
ssg16
I182685975
ssI16
(dp1396
g6
(dp1397
g8
I18
sg9
I3
sg10
I7
sg11
I0
sg12
I1
sg13
I0
sg14
I0
sg15
I0
ssg16
I305510595
sssI30
(dp1398
I64
(dp1399
g6
(dp1400
g8
I18
sg9
I3
sg10
I8
sg11
I0
sg12
I1
sg13
I0
sg14
I0
sg15
I0
ssg16
I696721837
ssI32
(dp1401
g6
(dp1402
g8
I18
sg9
I3
sg10
I7
sg11
I0
sg12
I1
sg13
I0
sg14
I0
sg15
I0
ssg16
I545042767
ssI2
(dp1403
g6
(dp1404
g8
I18
sg9
I3
sg10
I7
sg11
I0
sg12
I1
sg13
I0
sg14
I0
sg15
I0
ssg16
I97630551
ssI4
(dp1405
g6
(dp1406
g8
I18
sg9
I3
sg10
I8
sg11
I0
sg12
I1
sg13
I0
sg14
I0
sg15
I0
ssg16
I158523893
ssI8
(dp1407
g6
(dp1408
g8
I18
sg9
I3
sg10
I8
sg11
I0
sg12
I1
sg13
I0
sg14
I0
sg15
I0
ssg16
I220270681
ssI16
(dp1409
g6
(dp1410
g8
I18
sg9
I3
sg10
I7
sg11
I0
sg12
I1
sg13
I0
sg14
I0
sg15
I0
ssg16
I366646940
ssssI65536
(dp1411
I60
(dp1412
I64
(dp1413
g6
(dp1414
V11
p1415
I2
sV10
p1416
I5
sV13
p1417
I0
sV12
p1418
I1
sV15
p1419
I0
sV14
p1420
I0
sV16
p1421
I0
sg8
I4714
sg9
I842
sg10
I2005
sg11
I171
sg12
I360
sg13
I42
sg14
I85
sg51
I10
sg15
I21
ssg16
I606777315
ssI32
(dp1422
g6
(dp1423
V11
p1424
I2
sV10
p1425
I5
sV13
p1426
I0
sV12
p1427
I1
sV15
p1428
I0
sV14
p1429
I0
sV16
p1430
I0
sg8
I4702
sg9
I839
sg10
I1998
sg11
I171
sg12
I362
sg13
I42
sg14
I85
sg51
I10
sg15
I21
ssg16
I350959594
ssI2
(dp1431
g6
(dp1432
V11
p1433
I2
sV10
p1434
I5
sV13
p1435
I0
sV12
p1436
I1
sV15
p1437
I0
sV14
p1438
I0
sV16
p1439
I0
sg8
I4693
sg9
I840
sg10
I1994
sg11
I171
sg12
I360
sg13
I42
sg14
I85
sg51
I10
sg15
I21
ssg16
I34427698
ssI4
(dp1440
g6
(dp1441
V11
p1442
I2
sV10
p1443
I5
sV13
p1444
I0
sV12
p1445
I1
sV15
p1446
I0
sV14
p1447
I0
sV16
p1448
I0
sg8
I4697
sg9
I840
sg10
I1995
sg11
I171
sg12
I360
sg13
I42
sg14
I85
sg51
I10
sg15
I21
ssg16
I63779568
ssI8
(dp1449
g6
(dp1450
V11
p1451
I2
sV10
p1452
I5
sV13
p1453
I0
sV12
p1454
I1
sV15
p1455
I0
sV14
p1456
I0
sV16
p1457
I0
sg8
I4704
sg9
I840
sg10
I1997
sg11
I171
sg12
I361
sg13
I42
sg14
I85
sg51
I10
sg15
I21
ssg16
I109766120
ssI16
(dp1458
g6
(dp1459
V11
p1460
I2
sV10
p1461
I5
sV13
p1462
I0
sV12
p1463
I1
sV15
p1464
I0
sV14
p1465
I0
sV16
p1466
I0
sg8
I4704
sg9
I841
sg10
I2000
sg11
I171
sg12
I362
sg13
I42
sg14
I85
sg51
I10
sg15
I21
ssg16
I196369649
sssI30
(dp1467
I64
(dp1468
g6
(dp1469
V11
p1470
I2
sV10
p1471
I5
sV13
p1472
I0
sV12
p1473
I1
sV15
p1474
I0
sV14
p1475
I0
sV16
p1476
I0
sg8
I4699
sg9
I839
sg10
I2001
sg11
I171
sg12
I360
sg13
I42
sg14
I85
sg51
I10
sg15
I21
ssg16
I656510763
ssI32
(dp1477
g6
(dp1478
V11
p1479
I2
sV10
p1480
I5
sV13
p1481
I0
sV12
p1482
I1
sV15
p1483
I0
sV14
p1484
I0
sV16
p1485
I0
sg8
I4703
sg9
I844
sg10
I2002
sg11
I171
sg12
I363
sg13
I42
sg14
I85
sg51
I10
sg15
I21
ssg16
I378766142
ssI2
(dp1486
g6
(dp1487
V11
p1488
I2
sV10
p1489
I5
sV13
p1490
I0
sV12
p1491
I1
sV15
p1492
I0
sV14
p1493
I0
sV16
p1494
I0
sg8
I4695
sg9
I839
sg10
I2000
sg11
I171
sg12
I360
sg13
I42
sg14
I85
sg51
I10
sg15
I21
ssg16
I37204470
ssI4
(dp1495
g6
(dp1496
V11
p1497
I2
sV10
p1498
I5
sV13
p1499
I0
sV12
p1500
I1
sV15
p1501
I0
sV14
p1502
I0
sV16
p1503
I0
sg8
I4696
sg9
I838
sg10
I1995
sg11
I171
sg12
I359
sg13
I42
sg14
I85
sg51
I10
sg15
I21
ssg16
I68929515
ssI8
(dp1504
g6
(dp1505
V11
p1506
I2
sV10
p1507
I5
sV13
p1508
I0
sV12
p1509
I1
sV15
p1510
I0
sV14
p1511
I0
sV16
p1512
I0
sg8
I4707
sg9
I838
sg10
I1999
sg11
I171
sg12
I358
sg13
I42
sg14
I85
sg51
I10
sg15
I21
ssg16
I117985887
ssI16
(dp1513
g6
(dp1514
V11
p1515
I2
sV10
p1516
I5
sV13
p1517
I0
sV12
p1518
I1
sV15
p1519
I0
sV14
p1520
I0
sV16
p1521
I0
sg8
I4698
sg9
I840
sg10
I2001
sg11
I171
sg12
I361
sg13
I42
sg14
I85
sg51
I10
sg15
I21
ssg16
I210452874
sssssS'background_sleep_depends_threads'
p1522
(dp1523
I256
(dp1524
I60
(dp1525
I64
(dp1526
g6
(dp1527
g8
I18
sg9
I3
sg10
I8
sg11
I0
sg12
I1
sg13
I0
sg14
I0
sg15
I0
ssg16
I558505053
ssI32
(dp1528
g6
(dp1529
g8
I18
sg9
I3
sg10
I7
sg11
I0
sg12
I1
sg13
I0
sg14
I0
sg15
I0
ssg16
I445264224
ssI2
(dp1530
g6
(dp1531
g8
I18
sg9
I3
sg10
I8
sg11
I0
sg12
I1
sg13
I0
sg14
I0
sg15
I0
ssg16
I83507305
ssI4
(dp1532
g6
(dp1533
g8
I18
sg9
I3
sg10
I7
sg11
I0
sg12
I1
sg13
I0
sg14
I0
sg15
I0
ssg16
I131095764
ssI8
(dp1534
g6
(dp1535
g8
I18
sg9
I3
sg10
I7
sg11
I0
sg12
I1
sg13
I0
sg14
I0
sg15
I0
ssg16
I184124825
ssI16
(dp1536
g6
(dp1537
g8
I18
sg9
I3
sg10
I7
sg11
I0
sg12
I1
sg13
I0
sg14
I0
sg15
I0
ssg16
I309087756
sssI30
(dp1538
I64
(dp1539
g6
(dp1540
g8
I18
sg9
I3
sg10
I8
sg11
I0
sg12
I1
sg13
I0
sg14
I0
sg15
I0
ssg16
I692543958
ssI32
(dp1541
g6
(dp1542
g8
I18
sg9
I3
sg10
I7
sg11
I0
sg12
I1
sg13
I0
sg14
I0
sg15
I0
ssg16
I547828839
ssI2
(dp1543
g6
(dp1544
g8
I18
sg9
I3
sg10
I8
sg11
I0
sg12
I1
sg13
I0
sg14
I0
sg15
I0
ssg16
I98401132
ssI4
(dp1545
g6
(dp1546
g8
I18
sg9
I3
sg10
I7
sg11
I0
sg12
I1
sg13
I0
sg14
I0
sg15
I0
ssg16
I159726848
ssI8
(dp1547
g6
(dp1548
g8
I18
sg9
I3
sg10
I7
sg11
I0
sg12
I1
sg13
I0
sg14
I0
sg15
I0
ssg16
I220982013
ssI16
(dp1549
g6
(dp1550
g8
I18
sg9
I3
sg10
I7
sg11
I0
sg12
I1
sg13
I0
sg14
I0
sg15
I0
ssg16
I371586770
ssssI65536
(dp1551
I60
(dp1552
I64
(dp1553
g6
(dp1554
V11
p1555
I2
sV10
p1556
I5
sV13
p1557
I0
sV12
p1558
I1
sV15
p1559
I0
sV14
p1560
I0
sV16
p1561
I0
sg8
I4707
sg9
I842
sg10
I2006
sg11
I171
sg12
I361
sg13
I42
sg14
I85
sg51
I10
sg15
I21
ssg16
I609023756
ssI32
(dp1562
g6
(dp1563
V11
p1564
I2
sV10
p1565
I5
sV13
p1566
I0
sV12
p1567
I1
sV15
p1568
I0
sV14
p1569
I0
sV16
p1570
I0
sg8
I4712
sg9
I845
sg10
I2011
sg11
I171
sg12
I362
sg13
I42
sg14
I85
sg51
I10
sg15
I21
ssg16
I352343243
ssI2
(dp1571
g6
(dp1572
V11
p1573
I2
sV10
p1574
I5
sV13
p1575
I0
sV12
p1576
I1
sV15
p1577
I0
sV14
p1578
I0
sV16
p1579
I0
sg8
I4703
sg9
I840
sg10
I2003
sg11
I171
sg12
I361
sg13
I42
sg14
I85
sg51
I10
sg15
I21
ssg16
I35068251
ssI4
(dp1580
g6
(dp1581
V11
p1582
I2
sV10
p1583
I5
sV13
p1584
I0
sV12
p1585
I1
sV15
p1586
I0
sV14
p1587
I0
sV16
p1588
I0
sg8
I4706
sg9
I840
sg10
I2001
sg11
I171
sg12
I361
sg13
I42
sg14
I85
sg51
I10
sg15
I21
ssg16
I64276657
ssI8
(dp1589
g6
(dp1590
V11
p1591
I2
sV10
p1592
I5
sV13
p1593
I0
sV12
p1594
I1
sV15
p1595
I0
sV14
p1596
I0
sV16
p1597
I0
sg8
I4711
sg9
I842
sg10
I2006
sg11
I171
sg12
I361
sg13
I42
sg14
I85
sg51
I10
sg15
I21
ssg16
I110771231
ssI16
(dp1598
g6
(dp1599
V11
p1600
I2
sV10
p1601
I5
sV13
p1602
I0
sV12
p1603
I1
sV15
p1604
I0
sV14
p1605
I0
sV16
p1606
I0
sg8
I4707
sg9
I838
sg10
I2002
sg11
I171
sg12
I359
sg13
I42
sg14
I85
sg51
I10
sg15
I21
ssg16
I196599547
sssI30
(dp1607
I64
(dp1608
g6
(dp1609
V11
p1610
I2
sV10
p1611
I5
sV13
p1612
I0
sV12
p1613
I1
sV15
p1614
I0
sV14
p1615
I0
sV16
p1616
I0
sg8
I4713
sg9
I842
sg10
I2009
sg11
I171
sg12
I361
sg13
I42
sg14
I85
sg51
I10
sg15
I21
ssg16
I658553568
ssI32
(dp1617
g6
(dp1618
V11
p1619
I2
sV10
p1620
I5
sV13
p1621
I0
sV12
p1622
I1
sV15
p1623
I0
sV14
p1624
I0
sV16
p1625
I0
sg8
I4708
sg9
I843
sg10
I2002
sg11
I171
sg12
I360
sg13
I42
sg14
I85
sg51
I10
sg15
I21
ssg16
I379902845
ssI2
(dp1626
g6
(dp1627
V11
p1628
I2
sV10
p1629
I5
sV13
p1630
I0
sV12
p1631
I1
sV15
p1632
I0
sV14
p1633
I0
sV16
p1634
I0
sg8
I4706
sg9
I838
sg10
I2002
sg11
I171
sg12
I360
sg13
I42
sg14
I85
sg51
I10
sg15
I21
ssg16
I36251171
ssI4
(dp1635
g6
(dp1636
V11
p1637
I2
sV10
p1638
I5
sV13
p1639
I0
sV12
p1640
I1
sV15
p1641
I0
sV14
p1642
I0
sV16
p1643
I0
sg8
I4708
sg9
I842
sg10
I1998
sg11
I171
sg12
I362
sg13
I42
sg14
I85
sg51
I10
sg15
I21
ssg16
I68256007
ssI8
(dp1644
g6
(dp1645
V11
p1646
I2
sV10
p1647
I5
sV13
p1648
I0
sV12
p1649
I1
sV15
p1650
I0
sV14
p1651
I0
sV16
p1652
I0
sg8
I4708
sg9
I842
sg10
I2004
sg11
I171
sg12
I360
sg13
I42
sg14
I85
sg51
I10
sg15
I21
ssg16
I119825868
ssI16
(dp1653
g6
(dp1654
V11
p1655
I2
sV10
p1656
I5
sV13
p1657
I0
sV12
p1658
I1
sV15
p1659
I0
sV14
p1660
I0
sV16
p1661
I0
sg8
I4713
sg9
I843
sg10
I2009
sg11
I171
sg12
I361
sg13
I42
sg14
I85
sg51
I10
sg15
I21
ssg16
I213491115
sssssS'level-delete-original-1'
p1662
(dp1663
I256
(dp1664
I60
(dp1665
I64
(dp1666
g6
(dp1667
g8
I18
sg9
I3
sg10
I7
sg11
I0
sg12
I1
sg13
I0
sg14
I0
sg15
I0
ssg16
I554539272
ssI32
(dp1668
g6
(dp1669
g8
I18
sg9
I3
sg10
I7
sg11
I0
sg12
I1
sg13
I0
sg14
I0
sg15
I0
ssg16
I449348273
ssI2
(dp1670
g6
(dp1671
g8
I18
sg9
I3
sg10
I7
sg11
I0
sg12
I1
sg13
I0
sg14
I0
sg15
I0
ssg16
I82780589
ssI4
(dp1672
g6
(dp1673
g8
I18
sg9
I3
sg10
I8
sg11
I0
sg12
I1
sg13
I0
sg14
I0
sg15
I0
ssg16
I129688644
ssI8
(dp1674
g6
(dp1675
g8
I18
sg9
I3
sg10
I7
sg11
I0
sg12
I1
sg13
I0
sg14
I0
sg15
I0
ssg16
I182766834
ssI16
(dp1676
g6
(dp1677
g8
I18
sg9
I3
sg10
I8
sg11
I0
sg12
I1
sg13
I0
sg14
I0
sg15
I0
ssg16
I304738691
sssI30
(dp1678
I64
(dp1679
g6
(dp1680
g8
I18
sg9
I3
sg10
I7
sg11
I0
sg12
I1
sg13
I0
sg14
I0
sg15
I0
ssg16
I693417678
ssI32
(dp1681
g6
(dp1682
g8
I18
sg9
I3
sg10
I7
sg11
I0
sg12
I1
sg13
I0
sg14
I0
sg15
I0
ssg16
I542011496
ssI2
(dp1683
g6
(dp1684
g8
I18
sg9
I3
sg10
I7
sg11
I0
sg12
I1
sg13
I0
sg14
I0
sg15
I0
ssg16
I96902293
ssI4
(dp1685
g6
(dp1686
g8
I18
sg9
I3
sg10
I7
sg11
I0
sg12
I1
sg13
I0
sg14
I0
sg15
I0
ssg16
I159210233
ssI8
(dp1687
g6
(dp1688
g8
I18
sg9
I3
sg10
I8
sg11
I0
sg12
I1
sg13
I0
sg14
I0
sg15
I0
ssg16
I220073940
ssI16
(dp1689
g6
(dp1690
g8
I18
sg9
I3
sg10
I7
sg11
I0
sg12
I1
sg13
I0
sg14
I0
sg15
I0
ssg16
I368139855
ssssI65536
(dp1691
I60
(dp1692
I64
(dp1693
g6
(dp1694
V11
p1695
I2
sV10
p1696
I5
sV13
p1697
I0
sV12
p1698
I1
sV15
p1699
I0
sV14
p1700
I0
sV16
p1701
I0
sg8
I4714
sg9
I848
sg10
I2009
sg11
I171
sg12
I363
sg13
I42
sg14
I85
sg51
I10
sg15
I21
ssg16
I600031355
ssI32
(dp1702
g6
(dp1703
V11
p1704
I2
sV10
p1705
I5
sV13
p1706
I0
sV12
p1707
I1
sV15
p1708
I0
sV14
p1709
I0
sV16
p1710
I0
sg8
I4706
sg9
I842
sg10
I2004
sg11
I171
sg12
I360
sg13
I42
sg14
I85
sg51
I10
sg15
I21
ssg16
I349969705
ssI2
(dp1711
g6
(dp1712
V11
p1713
I2
sV10
p1714
I5
sV13
p1715
I0
sV12
p1716
I1
sV15
p1717
I0
sV14
p1718
I0
sV16
p1719
I0
sg8
I4687
sg9
I833
sg10
I1988
sg11
I171
sg12
I359
sg13
I42
sg14
I85
sg51
I10
sg15
I21
ssg16
I34587607
ssI4
(dp1720
g6
(dp1721
V11
p1722
I2
sV10
p1723
I5
sV13
p1724
I0
sV12
p1725
I1
sV15
p1726
I0
sV14
p1727
I0
sV16
p1728
I0
sg8
I4702
sg9
I839
sg10
I1998
sg11
I171
sg12
I360
sg13
I42
sg14
I85
sg51
I10
sg15
I21
ssg16
I63349766
ssI8
(dp1729
g6
(dp1730
V11
p1731
I2
sV10
p1732
I5
sV13
p1733
I0
sV12
p1734
I1
sV15
p1735
I0
sV14
p1736
I0
sV16
p1737
I0
sg8
I4708
sg9
I844
sg10
I2007
sg11
I171
sg12
I363
sg13
I42
sg14
I85
sg51
I10
sg15
I21
ssg16
I109858879
ssI16
(dp1738
g6
(dp1739
V11
p1740
I2
sV10
p1741
I5
sV13
p1742
I0
sV12
p1743
I1
sV15
p1744
I0
sV14
p1745
I0
sV16
p1746
I0
sg8
I4711
sg9
I841
sg10
I2001
sg11
I171
sg12
I360
sg13
I42
sg14
I85
sg51
I10
sg15
I21
ssg16
I194753665
sssI30
(dp1747
I64
(dp1748
g6
(dp1749
V11
p1750
I2
sV10
p1751
I5
sV13
p1752
I0
sV12
p1753
I1
sV15
p1754
I0
sV14
p1755
I0
sV16
p1756
I0
sg8
I4713
sg9
I843
sg10
I2006
sg11
I171
sg12
I362
sg13
I42
sg14
I85
sg51
I10
sg15
I21
ssg16
I655892432
ssI32
(dp1757
g6
(dp1758
V11
p1759
I2
sV10
p1760
I5
sV13
p1761
I0
sV12
p1762
I1
sV15
p1763
I0
sV14
p1764
I0
sV16
p1765
I0
sg8
I4707
sg9
I839
sg10
I2004
sg11
I171
sg12
I362
sg13
I42
sg14
I85
sg51
I10
sg15
I21
ssg16
I379509911
ssI2
(dp1766
g6
(dp1767
V11
p1768
I2
sV10
p1769
I5
sV13
p1770
I0
sV12
p1771
I1
sV15
p1772
I0
sV14
p1773
I0
sV16
p1774
I0
sg8
I4693
sg9
I833
sg10
I1990
sg11
I171
sg12
I359
sg13
I42
sg14
I85
sg51
I10
sg15
I21
ssg16
I37097292
ssI4
(dp1775
g6
(dp1776
V11
p1777
I2
sV10
p1778
I5
sV13
p1779
I0
sV12
p1780
I1
sV15
p1781
I0
sV14
p1782
I0
sV16
p1783
I0
sg8
I4700
sg9
I838
sg10
I1994
sg11
I171
sg12
I360
sg13
I42
sg14
I85
sg51
I10
sg15
I21
ssg16
I69165617
ssI8
(dp1784
g6
(dp1785
V11
p1786
I2
sV10
p1787
I5
sV13
p1788
I0
sV12
p1789
I1
sV15
p1790
I0
sV14
p1791
I0
sV16
p1792
I0
sg8
I4703
sg9
I838
sg10
I1999
sg11
I170
sg12
I359
sg13
I42
sg14
I85
sg51
I10
sg15
I21
ssg16
I118142072
ssI16
(dp1793
g6
(dp1794
V11
p1795
I2
sV10
p1796
I5
sV13
p1797
I0
sV12
p1798
I1
sV15
p1799
I0
sV14
p1800
I0
sV16
p1801
I0
sg8
I4708
sg9
I844
sg10
I2006
sg11
I171
sg12
I360
sg13
I42
sg14
I85
sg51
I10
sg15
I21
ssg16
I210131094
sssss.