(dp0
S'originl-rotating-skiplist'
p1
(dp2
I1024
(dp3
I10
(dp4
I64
(dp5
S'nodes'
p6
(dp7
V10
p8
I0
sV1
p9
I88
sV3
p10
I15
sV2
p11
I37
sV5
p12
I3
sV4
p13
I6
sV7
p14
I0
sV6
p15
I1
sV9
p16
I0
sV8
p17
I0
ssS'txs'
p18
I1026114431
ssI32
(dp19
g6
(dp20
V10
p21
I0
sg9
I88
sg10
I15
sg11
I38
sg12
I3
sg13
I6
sg14
I0
sg15
I1
sg16
I0
sg17
I0
ssg18
I646497730
ssI2
(dp22
g6
(dp23
V10
p24
I0
sg9
I89
sg10
I15
sg11
I37
sg12
I3
sg13
I6
sg14
I0
sg15
I1
sg16
I0
sg17
I0
ssg18
I82175624
ssI4
(dp25
g6
(dp26
V10
p27
I0
sg9
I89
sg10
I16
sg11
I38
sg12
I3
sg13
I7
sg14
I0
sg15
I1
sg16
I0
sg17
I0
ssg18
I150994519
ssI8
(dp28
g6
(dp29
V10
p30
I0
sg9
I88
sg10
I16
sg11
I38
sg12
I3
sg13
I6
sg14
I0
sg15
I1
sg16
I0
sg17
I0
ssg18
I228040201
ssI16
(dp31
g6
(dp32
V10
p33
I0
sg9
I88
sg10
I14
sg11
I36
sg12
I3
sg13
I6
sg14
I0
sg15
I1
sg16
I0
sg17
I0
ssg18
I384567932
sssI100
(dp34
I64
(dp35
g6
(dp36
V10
p37
I0
sg9
I88
sg10
I16
sg11
I37
sg12
I3
sg13
I6
sg14
I0
sg15
I1
sg16
I0
sg17
I0
ssg18
I581420290
ssI32
(dp38
g6
(dp39
V10
p40
I0
sg9
I88
sg10
I15
sg11
I37
sg12
I3
sg13
I6
sg14
I0
sg15
I1
sg16
I0
sg17
I0
ssg18
I396409726
ssI2
(dp41
g6
(dp42
V10
p43
I0
sg9
I88
sg10
I15
sg11
I37
sg12
I3
sg13
I6
sg14
I0
sg15
I1
sg16
I0
sg17
I0
ssg18
I58707837
ssI4
(dp44
g6
(dp45
V10
p46
I0
sg9
I88
sg10
I15
sg11
I37
sg12
I3
sg13
I6
sg14
I0
sg15
I1
sg16
I0
sg17
I0
ssg18
I95884980
ssI8
(dp47
g6
(dp48
V10
p49
I0
sg9
I88
sg10
I16
sg11
I37
sg12
I3
sg13
I6
sg14
I0
sg15
I1
sg16
I0
sg17
I0
ssg18
I140742191
ssI16
(dp50
g6
(dp51
V10
p52
I0
sg9
I88
sg10
I15
sg11
I37
sg12
I3
sg13
I6
sg14
I0
sg15
I1
sg16
I0
sg17
I0
ssg18
I249657548
sssssS'threads-help-remove-log-number-threads'
p53
(dp54
I1024
(dp55
I10
(dp56
I64
(dp57
g6
(dp58
V10
p59
I0
sg9
I87
sg10
I15
sg11
I38
sg12
I3
sg13
I6
sg14
I0
sg15
I1
sg16
I0
sg17
I0
ssg18
I1028094028
ssI32
(dp60
g6
(dp61
V10
p62
I0
sg9
I88
sg10
I16
sg11
I38
sg12
I3
sg13
I7
sg14
I0
sg15
I1
sg16
I0
sg17
I0
ssg18
I643576894
ssI2
(dp63
g6
(dp64
V10
p65
I0
sg9
I87
sg10
I15
sg11
I37
sg12
I3
sg13
I6
sg14
I0
sg15
I1
sg16
I0
sg17
I0
ssg18
I81836318
ssI4
(dp66
g6
(dp67
V10
p68
I0
sg9
I88
sg10
I15
sg11
I37
sg12
I3
sg13
I6
sg14
I0
sg15
I1
sg16
I0
sg17
I0
ssg18
I148730363
ssI8
(dp69
g6
(dp70
V10
p71
I0
sg9
I88
sg10
I15
sg11
I38
sg12
I3
sg13
I6
sg14
I0
sg15
I1
sg16
I0
sg17
I0
ssg18
I224699419
ssI16
(dp72
g6
(dp73
V10
p74
I0
sg9
I89
sg10
I15
sg11
I38
sg12
I3
sg13
I6
sg14
I0
sg15
I1
sg16
I0
sg17
I0
ssg18
I389634048
sssI100
(dp75
I64
(dp76
g6
(dp77
V10
p78
I0
sg9
I87
sg10
I16
sg11
I37
sg12
I3
sg13
I6
sg14
I0
sg15
I1
sg16
I0
sg17
I0
ssg18
I581988680
ssI32
(dp79
g6
(dp80
V10
p81
I0
sg9
I87
sg10
I15
sg11
I37
sg12
I3
sg13
I6
sg14
I0
sg15
I1
sg16
I0
sg17
I0
ssg18
I397030660
ssI2
(dp82
g6
(dp83
V10
p84
I0
sg9
I88
sg10
I16
sg11
I38
sg12
I3
sg13
I7
sg14
I0
sg15
I1
sg16
I0
sg17
I0
ssg18
I59462141
ssI4
(dp85
g6
(dp86
V10
p87
I0
sg9
I88
sg10
I15
sg11
I36
sg12
I3
sg13
I6
sg14
I0
sg15
I1
sg16
I0
sg17
I0
ssg18
I95479999
ssI8
(dp88
g6
(dp89
V10
p90
I0
sg9
I88
sg10
I15
sg11
I37
sg12
I3
sg13
I6
sg14
I0
sg15
I1
sg16
I0
sg17
I0
ssg18
I140932069
ssI16
(dp91
g6
(dp92
V10
p93
I0
sg9
I89
sg10
I16
sg11
I37
sg12
I3
sg13
I7
sg14
I0
sg15
I1
sg16
I0
sg17
I0
ssg18
I244930711
sssss.